
stm32_gps_gsm.elf:     file format elf32-littlearm

Sections:
Idx Name          Size      VMA       LMA       File off  Algn
  0 .isr_vector   000000c0  08000000  08000000  00010000  2**0
                  CONTENTS, ALLOC, LOAD, READONLY, DATA
  1 .text         00004a08  080000c0  080000c0  000100c0  2**2
                  CONTENTS, ALLOC, LOAD, READONLY, CODE
  2 .rodata       00000038  08004ac8  08004ac8  00014ac8  2**2
                  CONTENTS, ALLOC, LOAD, READONLY, DATA
  3 .ARM.extab    00000000  08004b00  08004b00  0002000c  2**0
                  CONTENTS
  4 .ARM          00000000  08004b00  08004b00  0002000c  2**0
                  CONTENTS
  5 .preinit_array 00000000  08004b00  08004b00  0002000c  2**0
                  CONTENTS, ALLOC, LOAD, DATA
  6 .init_array   00000004  08004b00  08004b00  00014b00  2**2
                  CONTENTS, ALLOC, LOAD, DATA
  7 .fini_array   00000004  08004b04  08004b04  00014b04  2**2
                  CONTENTS, ALLOC, LOAD, DATA
  8 .data         0000000c  20000000  08004b08  00020000  2**2
                  CONTENTS, ALLOC, LOAD, DATA
  9 .bss          00000340  2000000c  08004b14  0002000c  2**2
                  ALLOC
 10 ._user_heap_stack 00000604  2000034c  08004b14  0002034c  2**0
                  ALLOC
 11 .ARM.attributes 00000028  00000000  00000000  0002000c  2**0
                  CONTENTS, READONLY
 12 .debug_info   00008795  00000000  00000000  00020034  2**0
                  CONTENTS, READONLY, DEBUGGING, OCTETS
 13 .debug_abbrev 00001659  00000000  00000000  000287c9  2**0
                  CONTENTS, READONLY, DEBUGGING, OCTETS
 14 .debug_aranges 00000668  00000000  00000000  00029e28  2**3
                  CONTENTS, READONLY, DEBUGGING, OCTETS
 15 .debug_ranges 000005e0  00000000  00000000  0002a490  2**3
                  CONTENTS, READONLY, DEBUGGING, OCTETS
 16 .debug_macro  0000f877  00000000  00000000  0002aa70  2**0
                  CONTENTS, READONLY, DEBUGGING, OCTETS
 17 .debug_line   00009232  00000000  00000000  0003a2e7  2**0
                  CONTENTS, READONLY, DEBUGGING, OCTETS
 18 .debug_str    0005ce3e  00000000  00000000  00043519  2**0
                  CONTENTS, READONLY, DEBUGGING, OCTETS
 19 .comment      00000050  00000000  00000000  000a0357  2**0
                  CONTENTS, READONLY
 20 .debug_frame  0000155c  00000000  00000000  000a03a8  2**2
                  CONTENTS, READONLY, DEBUGGING, OCTETS

Disassembly of section .text:

080000c0 <__do_global_dtors_aux>:
 80000c0:	b510      	push	{r4, lr}
 80000c2:	4c06      	ldr	r4, [pc, #24]	; (80000dc <__do_global_dtors_aux+0x1c>)
 80000c4:	7823      	ldrb	r3, [r4, #0]
 80000c6:	2b00      	cmp	r3, #0
 80000c8:	d107      	bne.n	80000da <__do_global_dtors_aux+0x1a>
 80000ca:	4b05      	ldr	r3, [pc, #20]	; (80000e0 <__do_global_dtors_aux+0x20>)
 80000cc:	2b00      	cmp	r3, #0
 80000ce:	d002      	beq.n	80000d6 <__do_global_dtors_aux+0x16>
 80000d0:	4804      	ldr	r0, [pc, #16]	; (80000e4 <__do_global_dtors_aux+0x24>)
 80000d2:	e000      	b.n	80000d6 <__do_global_dtors_aux+0x16>
 80000d4:	bf00      	nop
 80000d6:	2301      	movs	r3, #1
 80000d8:	7023      	strb	r3, [r4, #0]
 80000da:	bd10      	pop	{r4, pc}
 80000dc:	2000000c 	.word	0x2000000c
 80000e0:	00000000 	.word	0x00000000
 80000e4:	08004ab0 	.word	0x08004ab0

080000e8 <frame_dummy>:
 80000e8:	4b04      	ldr	r3, [pc, #16]	; (80000fc <frame_dummy+0x14>)
 80000ea:	b510      	push	{r4, lr}
 80000ec:	2b00      	cmp	r3, #0
 80000ee:	d003      	beq.n	80000f8 <frame_dummy+0x10>
 80000f0:	4903      	ldr	r1, [pc, #12]	; (8000100 <frame_dummy+0x18>)
 80000f2:	4804      	ldr	r0, [pc, #16]	; (8000104 <frame_dummy+0x1c>)
 80000f4:	e000      	b.n	80000f8 <frame_dummy+0x10>
 80000f6:	bf00      	nop
 80000f8:	bd10      	pop	{r4, pc}
 80000fa:	46c0      	nop			; (mov r8, r8)
 80000fc:	00000000 	.word	0x00000000
 8000100:	20000010 	.word	0x20000010
 8000104:	08004ab0 	.word	0x08004ab0

08000108 <strlen>:
 8000108:	2300      	movs	r3, #0
 800010a:	5cc2      	ldrb	r2, [r0, r3]
 800010c:	3301      	adds	r3, #1
 800010e:	2a00      	cmp	r2, #0
 8000110:	d1fb      	bne.n	800010a <strlen+0x2>
 8000112:	1e58      	subs	r0, r3, #1
 8000114:	4770      	bx	lr
	...

08000118 <__udivsi3>:
 8000118:	2200      	movs	r2, #0
 800011a:	0843      	lsrs	r3, r0, #1
 800011c:	428b      	cmp	r3, r1
 800011e:	d374      	bcc.n	800020a <__udivsi3+0xf2>
 8000120:	0903      	lsrs	r3, r0, #4
 8000122:	428b      	cmp	r3, r1
 8000124:	d35f      	bcc.n	80001e6 <__udivsi3+0xce>
 8000126:	0a03      	lsrs	r3, r0, #8
 8000128:	428b      	cmp	r3, r1
 800012a:	d344      	bcc.n	80001b6 <__udivsi3+0x9e>
 800012c:	0b03      	lsrs	r3, r0, #12
 800012e:	428b      	cmp	r3, r1
 8000130:	d328      	bcc.n	8000184 <__udivsi3+0x6c>
 8000132:	0c03      	lsrs	r3, r0, #16
 8000134:	428b      	cmp	r3, r1
 8000136:	d30d      	bcc.n	8000154 <__udivsi3+0x3c>
 8000138:	22ff      	movs	r2, #255	; 0xff
 800013a:	0209      	lsls	r1, r1, #8
 800013c:	ba12      	rev	r2, r2
 800013e:	0c03      	lsrs	r3, r0, #16
 8000140:	428b      	cmp	r3, r1
 8000142:	d302      	bcc.n	800014a <__udivsi3+0x32>
 8000144:	1212      	asrs	r2, r2, #8
 8000146:	0209      	lsls	r1, r1, #8
 8000148:	d065      	beq.n	8000216 <__udivsi3+0xfe>
 800014a:	0b03      	lsrs	r3, r0, #12
 800014c:	428b      	cmp	r3, r1
 800014e:	d319      	bcc.n	8000184 <__udivsi3+0x6c>
 8000150:	e000      	b.n	8000154 <__udivsi3+0x3c>
 8000152:	0a09      	lsrs	r1, r1, #8
 8000154:	0bc3      	lsrs	r3, r0, #15
 8000156:	428b      	cmp	r3, r1
 8000158:	d301      	bcc.n	800015e <__udivsi3+0x46>
 800015a:	03cb      	lsls	r3, r1, #15
 800015c:	1ac0      	subs	r0, r0, r3
 800015e:	4152      	adcs	r2, r2
 8000160:	0b83      	lsrs	r3, r0, #14
 8000162:	428b      	cmp	r3, r1
 8000164:	d301      	bcc.n	800016a <__udivsi3+0x52>
 8000166:	038b      	lsls	r3, r1, #14
 8000168:	1ac0      	subs	r0, r0, r3
 800016a:	4152      	adcs	r2, r2
 800016c:	0b43      	lsrs	r3, r0, #13
 800016e:	428b      	cmp	r3, r1
 8000170:	d301      	bcc.n	8000176 <__udivsi3+0x5e>
 8000172:	034b      	lsls	r3, r1, #13
 8000174:	1ac0      	subs	r0, r0, r3
 8000176:	4152      	adcs	r2, r2
 8000178:	0b03      	lsrs	r3, r0, #12
 800017a:	428b      	cmp	r3, r1
 800017c:	d301      	bcc.n	8000182 <__udivsi3+0x6a>
 800017e:	030b      	lsls	r3, r1, #12
 8000180:	1ac0      	subs	r0, r0, r3
 8000182:	4152      	adcs	r2, r2
 8000184:	0ac3      	lsrs	r3, r0, #11
 8000186:	428b      	cmp	r3, r1
 8000188:	d301      	bcc.n	800018e <__udivsi3+0x76>
 800018a:	02cb      	lsls	r3, r1, #11
 800018c:	1ac0      	subs	r0, r0, r3
 800018e:	4152      	adcs	r2, r2
 8000190:	0a83      	lsrs	r3, r0, #10
 8000192:	428b      	cmp	r3, r1
 8000194:	d301      	bcc.n	800019a <__udivsi3+0x82>
 8000196:	028b      	lsls	r3, r1, #10
 8000198:	1ac0      	subs	r0, r0, r3
 800019a:	4152      	adcs	r2, r2
 800019c:	0a43      	lsrs	r3, r0, #9
 800019e:	428b      	cmp	r3, r1
 80001a0:	d301      	bcc.n	80001a6 <__udivsi3+0x8e>
 80001a2:	024b      	lsls	r3, r1, #9
 80001a4:	1ac0      	subs	r0, r0, r3
 80001a6:	4152      	adcs	r2, r2
 80001a8:	0a03      	lsrs	r3, r0, #8
 80001aa:	428b      	cmp	r3, r1
 80001ac:	d301      	bcc.n	80001b2 <__udivsi3+0x9a>
 80001ae:	020b      	lsls	r3, r1, #8
 80001b0:	1ac0      	subs	r0, r0, r3
 80001b2:	4152      	adcs	r2, r2
 80001b4:	d2cd      	bcs.n	8000152 <__udivsi3+0x3a>
 80001b6:	09c3      	lsrs	r3, r0, #7
 80001b8:	428b      	cmp	r3, r1
 80001ba:	d301      	bcc.n	80001c0 <__udivsi3+0xa8>
 80001bc:	01cb      	lsls	r3, r1, #7
 80001be:	1ac0      	subs	r0, r0, r3
 80001c0:	4152      	adcs	r2, r2
 80001c2:	0983      	lsrs	r3, r0, #6
 80001c4:	428b      	cmp	r3, r1
 80001c6:	d301      	bcc.n	80001cc <__udivsi3+0xb4>
 80001c8:	018b      	lsls	r3, r1, #6
 80001ca:	1ac0      	subs	r0, r0, r3
 80001cc:	4152      	adcs	r2, r2
 80001ce:	0943      	lsrs	r3, r0, #5
 80001d0:	428b      	cmp	r3, r1
 80001d2:	d301      	bcc.n	80001d8 <__udivsi3+0xc0>
 80001d4:	014b      	lsls	r3, r1, #5
 80001d6:	1ac0      	subs	r0, r0, r3
 80001d8:	4152      	adcs	r2, r2
 80001da:	0903      	lsrs	r3, r0, #4
 80001dc:	428b      	cmp	r3, r1
 80001de:	d301      	bcc.n	80001e4 <__udivsi3+0xcc>
 80001e0:	010b      	lsls	r3, r1, #4
 80001e2:	1ac0      	subs	r0, r0, r3
 80001e4:	4152      	adcs	r2, r2
 80001e6:	08c3      	lsrs	r3, r0, #3
 80001e8:	428b      	cmp	r3, r1
 80001ea:	d301      	bcc.n	80001f0 <__udivsi3+0xd8>
 80001ec:	00cb      	lsls	r3, r1, #3
 80001ee:	1ac0      	subs	r0, r0, r3
 80001f0:	4152      	adcs	r2, r2
 80001f2:	0883      	lsrs	r3, r0, #2
 80001f4:	428b      	cmp	r3, r1
 80001f6:	d301      	bcc.n	80001fc <__udivsi3+0xe4>
 80001f8:	008b      	lsls	r3, r1, #2
 80001fa:	1ac0      	subs	r0, r0, r3
 80001fc:	4152      	adcs	r2, r2
 80001fe:	0843      	lsrs	r3, r0, #1
 8000200:	428b      	cmp	r3, r1
 8000202:	d301      	bcc.n	8000208 <__udivsi3+0xf0>
 8000204:	004b      	lsls	r3, r1, #1
 8000206:	1ac0      	subs	r0, r0, r3
 8000208:	4152      	adcs	r2, r2
 800020a:	1a41      	subs	r1, r0, r1
 800020c:	d200      	bcs.n	8000210 <__udivsi3+0xf8>
 800020e:	4601      	mov	r1, r0
 8000210:	4152      	adcs	r2, r2
 8000212:	4610      	mov	r0, r2
 8000214:	4770      	bx	lr
 8000216:	e7ff      	b.n	8000218 <__udivsi3+0x100>
 8000218:	b501      	push	{r0, lr}
 800021a:	2000      	movs	r0, #0
 800021c:	f000 f806 	bl	800022c <__aeabi_idiv0>
 8000220:	bd02      	pop	{r1, pc}
 8000222:	46c0      	nop			; (mov r8, r8)

08000224 <__aeabi_uidivmod>:
 8000224:	2900      	cmp	r1, #0
 8000226:	d0f7      	beq.n	8000218 <__udivsi3+0x100>
 8000228:	e776      	b.n	8000118 <__udivsi3>
 800022a:	4770      	bx	lr

0800022c <__aeabi_idiv0>:
 800022c:	4770      	bx	lr
 800022e:	46c0      	nop			; (mov r8, r8)

08000230 <HAL_UART_RxCpltCallback>:

bool ctrl_uart1 = false;
bool ctrl_uart2 = false;

void HAL_UART_RxCpltCallback(UART_HandleTypeDef *huart)
{
 8000230:	b580      	push	{r7, lr}
 8000232:	b082      	sub	sp, #8
 8000234:	af00      	add	r7, sp, #0
 8000236:	6078      	str	r0, [r7, #4]
	if(huart -> Instance == USART1)
 8000238:	687b      	ldr	r3, [r7, #4]
 800023a:	681b      	ldr	r3, [r3, #0]
 800023c:	4a11      	ldr	r2, [pc, #68]	; (8000284 <HAL_UART_RxCpltCallback+0x54>)
 800023e:	4293      	cmp	r3, r2
 8000240:	d10b      	bne.n	800025a <HAL_UART_RxCpltCallback+0x2a>
	{
		MX_USART1_UART_Init();
 8000242:	f001 fe1f 	bl	8001e84 <MX_USART1_UART_Init>
		HAL_UART_Receive_IT(&huart1, data_in_uart1, 400);
 8000246:	23c8      	movs	r3, #200	; 0xc8
 8000248:	005a      	lsls	r2, r3, #1
 800024a:	490f      	ldr	r1, [pc, #60]	; (8000288 <HAL_UART_RxCpltCallback+0x58>)
 800024c:	4b0f      	ldr	r3, [pc, #60]	; (800028c <HAL_UART_RxCpltCallback+0x5c>)
 800024e:	0018      	movs	r0, r3
 8000250:	f003 fb1d 	bl	800388e <HAL_UART_Receive_IT>
		ctrl_uart1 = true;
 8000254:	4b0e      	ldr	r3, [pc, #56]	; (8000290 <HAL_UART_RxCpltCallback+0x60>)
 8000256:	2201      	movs	r2, #1
 8000258:	701a      	strb	r2, [r3, #0]
	}
	if(huart -> Instance == USART2)
 800025a:	687b      	ldr	r3, [r7, #4]
 800025c:	681b      	ldr	r3, [r3, #0]
 800025e:	4a0d      	ldr	r2, [pc, #52]	; (8000294 <HAL_UART_RxCpltCallback+0x64>)
 8000260:	4293      	cmp	r3, r2
 8000262:	d10a      	bne.n	800027a <HAL_UART_RxCpltCallback+0x4a>
	{
		MX_USART2_UART_Init();
 8000264:	f001 fe3e 	bl	8001ee4 <MX_USART2_UART_Init>
		HAL_UART_Receive_IT(&huart2, data_in_uart2, 60);
 8000268:	490b      	ldr	r1, [pc, #44]	; (8000298 <HAL_UART_RxCpltCallback+0x68>)
 800026a:	4b0c      	ldr	r3, [pc, #48]	; (800029c <HAL_UART_RxCpltCallback+0x6c>)
 800026c:	223c      	movs	r2, #60	; 0x3c
 800026e:	0018      	movs	r0, r3
 8000270:	f003 fb0d 	bl	800388e <HAL_UART_Receive_IT>
		ctrl_uart2 = true;
 8000274:	4b0a      	ldr	r3, [pc, #40]	; (80002a0 <HAL_UART_RxCpltCallback+0x70>)
 8000276:	2201      	movs	r2, #1
 8000278:	701a      	strb	r2, [r3, #0]
	}
}
 800027a:	46c0      	nop			; (mov r8, r8)
 800027c:	46bd      	mov	sp, r7
 800027e:	b002      	add	sp, #8
 8000280:	bd80      	pop	{r7, pc}
 8000282:	46c0      	nop			; (mov r8, r8)
 8000284:	40013800 	.word	0x40013800
 8000288:	20000174 	.word	0x20000174
 800028c:	20000028 	.word	0x20000028
 8000290:	20000345 	.word	0x20000345
 8000294:	40004400 	.word	0x40004400
 8000298:	20000308 	.word	0x20000308
 800029c:	200000ac 	.word	0x200000ac
 80002a0:	20000346 	.word	0x20000346

080002a4 <main>:
/**
  * @brief  The application entry point.
  * @retval int
  */
int main(void)
{
 80002a4:	b5b0      	push	{r4, r5, r7, lr}
 80002a6:	4cfe      	ldr	r4, [pc, #1016]	; (80006a0 <main+0x3fc>)
 80002a8:	44a5      	add	sp, r4
 80002aa:	af00      	add	r7, sp, #0
  /* USER CODE BEGIN 1 */
	unsigned char data_filter_uart1[100] = {0};
 80002ac:	23d0      	movs	r3, #208	; 0xd0
 80002ae:	009b      	lsls	r3, r3, #2
 80002b0:	18fb      	adds	r3, r7, r3
 80002b2:	2200      	movs	r2, #0
 80002b4:	601a      	str	r2, [r3, #0]
 80002b6:	3304      	adds	r3, #4
 80002b8:	2260      	movs	r2, #96	; 0x60
 80002ba:	2100      	movs	r1, #0
 80002bc:	0018      	movs	r0, r3
 80002be:	f004 fbef 	bl	8004aa0 <memset>
	unsigned char data_filter_uart2[100] = {0};
 80002c2:	23b7      	movs	r3, #183	; 0xb7
 80002c4:	009b      	lsls	r3, r3, #2
 80002c6:	18fb      	adds	r3, r7, r3
 80002c8:	2200      	movs	r2, #0
 80002ca:	601a      	str	r2, [r3, #0]
 80002cc:	3304      	adds	r3, #4
 80002ce:	2260      	movs	r2, #96	; 0x60
 80002d0:	2100      	movs	r1, #0
 80002d2:	0018      	movs	r0, r3
 80002d4:	f004 fbe4 	bl	8004aa0 <memset>

	unsigned char error_msg_NS[5] = {0};
 80002d8:	21b5      	movs	r1, #181	; 0xb5
 80002da:	0089      	lsls	r1, r1, #2
 80002dc:	187b      	adds	r3, r7, r1
 80002de:	2200      	movs	r2, #0
 80002e0:	601a      	str	r2, [r3, #0]
 80002e2:	2200      	movs	r2, #0
 80002e4:	711a      	strb	r2, [r3, #4]
	error_msg_NS[0] = 0x4E;
 80002e6:	187b      	adds	r3, r7, r1
 80002e8:	224e      	movs	r2, #78	; 0x4e
 80002ea:	701a      	strb	r2, [r3, #0]
	error_msg_NS[1] = 0x53; //mensagem de erro: "NS" no signal
 80002ec:	187b      	adds	r3, r7, r1
 80002ee:	2253      	movs	r2, #83	; 0x53
 80002f0:	705a      	strb	r2, [r3, #1]

	unsigned char error_msg_ID[5] = {0};
 80002f2:	21b3      	movs	r1, #179	; 0xb3
 80002f4:	0089      	lsls	r1, r1, #2
 80002f6:	187b      	adds	r3, r7, r1
 80002f8:	2200      	movs	r2, #0
 80002fa:	601a      	str	r2, [r3, #0]
 80002fc:	2200      	movs	r2, #0
 80002fe:	711a      	strb	r2, [r3, #4]
	error_msg_ID[0] = 0x49;
 8000300:	187b      	adds	r3, r7, r1
 8000302:	2249      	movs	r2, #73	; 0x49
 8000304:	701a      	strb	r2, [r3, #0]
	error_msg_ID[1] = 0x44; //mensagem de erro: "ID" invalid data
 8000306:	187b      	adds	r3, r7, r1
 8000308:	2244      	movs	r2, #68	; 0x44
 800030a:	705a      	strb	r2, [r3, #1]

	unsigned char error_msg_NC[5] = {0};
 800030c:	21b1      	movs	r1, #177	; 0xb1
 800030e:	0089      	lsls	r1, r1, #2
 8000310:	187b      	adds	r3, r7, r1
 8000312:	2200      	movs	r2, #0
 8000314:	601a      	str	r2, [r3, #0]
 8000316:	2200      	movs	r2, #0
 8000318:	711a      	strb	r2, [r3, #4]
	error_msg_NC[0] = 0x4E;
 800031a:	187b      	adds	r3, r7, r1
 800031c:	224e      	movs	r2, #78	; 0x4e
 800031e:	701a      	strb	r2, [r3, #0]
	error_msg_NC[1] = 0x43; // mensagem de erro: "NC" no connectivity
 8000320:	187b      	adds	r3, r7, r1
 8000322:	2243      	movs	r2, #67	; 0x43
 8000324:	705a      	strb	r2, [r3, #1]

	unsigned char send_msg[2] = {0};
 8000326:	21b0      	movs	r1, #176	; 0xb0
 8000328:	0089      	lsls	r1, r1, #2
 800032a:	187b      	adds	r3, r7, r1
 800032c:	2200      	movs	r2, #0
 800032e:	801a      	strh	r2, [r3, #0]
	send_msg[0] = 0x1A;  //send msg = ctrl+z
 8000330:	187b      	adds	r3, r7, r1
 8000332:	221a      	movs	r2, #26
 8000334:	701a      	strb	r2, [r3, #0]

	bool ctrl_creg_loop = false;
 8000336:	4bdb      	ldr	r3, [pc, #876]	; (80006a4 <main+0x400>)
 8000338:	18fb      	adds	r3, r7, r3
 800033a:	2200      	movs	r2, #0
 800033c:	701a      	strb	r2, [r3, #0]

	// DEFININDO COMANDOS AT
	unsigned char at_command[11][50] = {{0},{0}};
 800033e:	4bda      	ldr	r3, [pc, #872]	; (80006a8 <main+0x404>)
 8000340:	24ec      	movs	r4, #236	; 0xec
 8000342:	00a4      	lsls	r4, r4, #2
 8000344:	191b      	adds	r3, r3, r4
 8000346:	19db      	adds	r3, r3, r7
 8000348:	0018      	movs	r0, r3
 800034a:	4bd8      	ldr	r3, [pc, #864]	; (80006ac <main+0x408>)
 800034c:	001a      	movs	r2, r3
 800034e:	2100      	movs	r1, #0
 8000350:	f004 fba6 	bl	8004aa0 <memset>

	at_command[AT][0] = 0x41; //A
 8000354:	4bd4      	ldr	r3, [pc, #848]	; (80006a8 <main+0x404>)
 8000356:	0020      	movs	r0, r4
 8000358:	181b      	adds	r3, r3, r0
 800035a:	19db      	adds	r3, r3, r7
 800035c:	2241      	movs	r2, #65	; 0x41
 800035e:	701a      	strb	r2, [r3, #0]
	at_command[AT][1] = 0x54; //T
 8000360:	4bd1      	ldr	r3, [pc, #836]	; (80006a8 <main+0x404>)
 8000362:	181b      	adds	r3, r3, r0
 8000364:	19db      	adds	r3, r3, r7
 8000366:	2254      	movs	r2, #84	; 0x54
 8000368:	705a      	strb	r2, [r3, #1]
	at_command[AT][2] = 0x0A; //enter
 800036a:	4bcf      	ldr	r3, [pc, #828]	; (80006a8 <main+0x404>)
 800036c:	181b      	adds	r3, r3, r0
 800036e:	19db      	adds	r3, r3, r7
 8000370:	220a      	movs	r2, #10
 8000372:	709a      	strb	r2, [r3, #2]

	at_command[AT_CFUN][0] = 0x41; //A
 8000374:	4bcc      	ldr	r3, [pc, #816]	; (80006a8 <main+0x404>)
 8000376:	181b      	adds	r3, r3, r0
 8000378:	19db      	adds	r3, r3, r7
 800037a:	2232      	movs	r2, #50	; 0x32
 800037c:	2141      	movs	r1, #65	; 0x41
 800037e:	5499      	strb	r1, [r3, r2]
	at_command[AT_CFUN][1] = 0x54; //T
 8000380:	4bc9      	ldr	r3, [pc, #804]	; (80006a8 <main+0x404>)
 8000382:	181b      	adds	r3, r3, r0
 8000384:	19db      	adds	r3, r3, r7
 8000386:	2233      	movs	r2, #51	; 0x33
 8000388:	2154      	movs	r1, #84	; 0x54
 800038a:	5499      	strb	r1, [r3, r2]
	at_command[AT_CFUN][2] = 0x2B; //+
 800038c:	4bc6      	ldr	r3, [pc, #792]	; (80006a8 <main+0x404>)
 800038e:	181b      	adds	r3, r3, r0
 8000390:	19db      	adds	r3, r3, r7
 8000392:	2234      	movs	r2, #52	; 0x34
 8000394:	212b      	movs	r1, #43	; 0x2b
 8000396:	5499      	strb	r1, [r3, r2]
	at_command[AT_CFUN][3] = 0x43; //C
 8000398:	4bc3      	ldr	r3, [pc, #780]	; (80006a8 <main+0x404>)
 800039a:	181b      	adds	r3, r3, r0
 800039c:	19db      	adds	r3, r3, r7
 800039e:	2235      	movs	r2, #53	; 0x35
 80003a0:	2143      	movs	r1, #67	; 0x43
 80003a2:	5499      	strb	r1, [r3, r2]
	at_command[AT_CFUN][4] = 0x46; //F
 80003a4:	4bc0      	ldr	r3, [pc, #768]	; (80006a8 <main+0x404>)
 80003a6:	181b      	adds	r3, r3, r0
 80003a8:	19db      	adds	r3, r3, r7
 80003aa:	2236      	movs	r2, #54	; 0x36
 80003ac:	2146      	movs	r1, #70	; 0x46
 80003ae:	5499      	strb	r1, [r3, r2]
	at_command[AT_CFUN][5] = 0x55; //U
 80003b0:	4bbd      	ldr	r3, [pc, #756]	; (80006a8 <main+0x404>)
 80003b2:	181b      	adds	r3, r3, r0
 80003b4:	19db      	adds	r3, r3, r7
 80003b6:	2237      	movs	r2, #55	; 0x37
 80003b8:	2155      	movs	r1, #85	; 0x55
 80003ba:	5499      	strb	r1, [r3, r2]
	at_command[AT_CFUN][6] = 0x4E; //N
 80003bc:	4bba      	ldr	r3, [pc, #744]	; (80006a8 <main+0x404>)
 80003be:	181b      	adds	r3, r3, r0
 80003c0:	19db      	adds	r3, r3, r7
 80003c2:	2238      	movs	r2, #56	; 0x38
 80003c4:	214e      	movs	r1, #78	; 0x4e
 80003c6:	5499      	strb	r1, [r3, r2]
	at_command[AT_CFUN][7] = 0x3D; //=
 80003c8:	4bb7      	ldr	r3, [pc, #732]	; (80006a8 <main+0x404>)
 80003ca:	181b      	adds	r3, r3, r0
 80003cc:	19db      	adds	r3, r3, r7
 80003ce:	2239      	movs	r2, #57	; 0x39
 80003d0:	213d      	movs	r1, #61	; 0x3d
 80003d2:	5499      	strb	r1, [r3, r2]
	at_command[AT_CFUN][8] = 0x31; //1
 80003d4:	4bb4      	ldr	r3, [pc, #720]	; (80006a8 <main+0x404>)
 80003d6:	181b      	adds	r3, r3, r0
 80003d8:	19db      	adds	r3, r3, r7
 80003da:	223a      	movs	r2, #58	; 0x3a
 80003dc:	2131      	movs	r1, #49	; 0x31
 80003de:	5499      	strb	r1, [r3, r2]
	at_command[AT_CFUN][9] = 0x0A; //enter
 80003e0:	4bb1      	ldr	r3, [pc, #708]	; (80006a8 <main+0x404>)
 80003e2:	181b      	adds	r3, r3, r0
 80003e4:	19db      	adds	r3, r3, r7
 80003e6:	223b      	movs	r2, #59	; 0x3b
 80003e8:	210a      	movs	r1, #10
 80003ea:	5499      	strb	r1, [r3, r2]

	at_command[AT_CPIN][0] = 0x41; //A
 80003ec:	4bae      	ldr	r3, [pc, #696]	; (80006a8 <main+0x404>)
 80003ee:	181b      	adds	r3, r3, r0
 80003f0:	19db      	adds	r3, r3, r7
 80003f2:	2264      	movs	r2, #100	; 0x64
 80003f4:	2141      	movs	r1, #65	; 0x41
 80003f6:	5499      	strb	r1, [r3, r2]
	at_command[AT_CPIN][1] = 0x54; //T
 80003f8:	4bab      	ldr	r3, [pc, #684]	; (80006a8 <main+0x404>)
 80003fa:	181b      	adds	r3, r3, r0
 80003fc:	19db      	adds	r3, r3, r7
 80003fe:	2265      	movs	r2, #101	; 0x65
 8000400:	2154      	movs	r1, #84	; 0x54
 8000402:	5499      	strb	r1, [r3, r2]
	at_command[AT_CPIN][2] = 0x2B; //+
 8000404:	4ba8      	ldr	r3, [pc, #672]	; (80006a8 <main+0x404>)
 8000406:	181b      	adds	r3, r3, r0
 8000408:	19db      	adds	r3, r3, r7
 800040a:	2266      	movs	r2, #102	; 0x66
 800040c:	212b      	movs	r1, #43	; 0x2b
 800040e:	5499      	strb	r1, [r3, r2]
	at_command[AT_CPIN][3] = 0x43; //C
 8000410:	4ba5      	ldr	r3, [pc, #660]	; (80006a8 <main+0x404>)
 8000412:	181b      	adds	r3, r3, r0
 8000414:	19db      	adds	r3, r3, r7
 8000416:	2267      	movs	r2, #103	; 0x67
 8000418:	2143      	movs	r1, #67	; 0x43
 800041a:	5499      	strb	r1, [r3, r2]
	at_command[AT_CPIN][4] = 0x50; //P
 800041c:	4ba2      	ldr	r3, [pc, #648]	; (80006a8 <main+0x404>)
 800041e:	181b      	adds	r3, r3, r0
 8000420:	19db      	adds	r3, r3, r7
 8000422:	2268      	movs	r2, #104	; 0x68
 8000424:	2150      	movs	r1, #80	; 0x50
 8000426:	5499      	strb	r1, [r3, r2]
	at_command[AT_CPIN][5] = 0x49; //I
 8000428:	4b9f      	ldr	r3, [pc, #636]	; (80006a8 <main+0x404>)
 800042a:	181b      	adds	r3, r3, r0
 800042c:	19db      	adds	r3, r3, r7
 800042e:	2269      	movs	r2, #105	; 0x69
 8000430:	2149      	movs	r1, #73	; 0x49
 8000432:	5499      	strb	r1, [r3, r2]
	at_command[AT_CPIN][6] = 0x4E; //N
 8000434:	4b9c      	ldr	r3, [pc, #624]	; (80006a8 <main+0x404>)
 8000436:	181b      	adds	r3, r3, r0
 8000438:	19db      	adds	r3, r3, r7
 800043a:	226a      	movs	r2, #106	; 0x6a
 800043c:	214e      	movs	r1, #78	; 0x4e
 800043e:	5499      	strb	r1, [r3, r2]
	at_command[AT_CPIN][7] = 0x3F; //?
 8000440:	4b99      	ldr	r3, [pc, #612]	; (80006a8 <main+0x404>)
 8000442:	181b      	adds	r3, r3, r0
 8000444:	19db      	adds	r3, r3, r7
 8000446:	226b      	movs	r2, #107	; 0x6b
 8000448:	213f      	movs	r1, #63	; 0x3f
 800044a:	5499      	strb	r1, [r3, r2]
	at_command[AT_CPIN][8] = 0x0A; //enter
 800044c:	4b96      	ldr	r3, [pc, #600]	; (80006a8 <main+0x404>)
 800044e:	181b      	adds	r3, r3, r0
 8000450:	19db      	adds	r3, r3, r7
 8000452:	226c      	movs	r2, #108	; 0x6c
 8000454:	210a      	movs	r1, #10
 8000456:	5499      	strb	r1, [r3, r2]

	at_command[AT_CREG][0] = 0x41; //A
 8000458:	4b93      	ldr	r3, [pc, #588]	; (80006a8 <main+0x404>)
 800045a:	181b      	adds	r3, r3, r0
 800045c:	19db      	adds	r3, r3, r7
 800045e:	2296      	movs	r2, #150	; 0x96
 8000460:	2141      	movs	r1, #65	; 0x41
 8000462:	5499      	strb	r1, [r3, r2]
	at_command[AT_CREG][1] = 0x54; //T
 8000464:	4b90      	ldr	r3, [pc, #576]	; (80006a8 <main+0x404>)
 8000466:	181b      	adds	r3, r3, r0
 8000468:	19db      	adds	r3, r3, r7
 800046a:	2297      	movs	r2, #151	; 0x97
 800046c:	2154      	movs	r1, #84	; 0x54
 800046e:	5499      	strb	r1, [r3, r2]
	at_command[AT_CREG][2] = 0x2B; //+
 8000470:	4b8d      	ldr	r3, [pc, #564]	; (80006a8 <main+0x404>)
 8000472:	181b      	adds	r3, r3, r0
 8000474:	19db      	adds	r3, r3, r7
 8000476:	2298      	movs	r2, #152	; 0x98
 8000478:	212b      	movs	r1, #43	; 0x2b
 800047a:	5499      	strb	r1, [r3, r2]
	at_command[AT_CREG][3] = 0x43; //C
 800047c:	4b8a      	ldr	r3, [pc, #552]	; (80006a8 <main+0x404>)
 800047e:	181b      	adds	r3, r3, r0
 8000480:	19db      	adds	r3, r3, r7
 8000482:	2299      	movs	r2, #153	; 0x99
 8000484:	2143      	movs	r1, #67	; 0x43
 8000486:	5499      	strb	r1, [r3, r2]
	at_command[AT_CREG][4] = 0x52; //R
 8000488:	4b87      	ldr	r3, [pc, #540]	; (80006a8 <main+0x404>)
 800048a:	181b      	adds	r3, r3, r0
 800048c:	19db      	adds	r3, r3, r7
 800048e:	229a      	movs	r2, #154	; 0x9a
 8000490:	2152      	movs	r1, #82	; 0x52
 8000492:	5499      	strb	r1, [r3, r2]
	at_command[AT_CREG][5] = 0x45; //E
 8000494:	4b84      	ldr	r3, [pc, #528]	; (80006a8 <main+0x404>)
 8000496:	181b      	adds	r3, r3, r0
 8000498:	19db      	adds	r3, r3, r7
 800049a:	229b      	movs	r2, #155	; 0x9b
 800049c:	2145      	movs	r1, #69	; 0x45
 800049e:	5499      	strb	r1, [r3, r2]
	at_command[AT_CREG][6] = 0x47; //G
 80004a0:	4b81      	ldr	r3, [pc, #516]	; (80006a8 <main+0x404>)
 80004a2:	181b      	adds	r3, r3, r0
 80004a4:	19db      	adds	r3, r3, r7
 80004a6:	229c      	movs	r2, #156	; 0x9c
 80004a8:	2147      	movs	r1, #71	; 0x47
 80004aa:	5499      	strb	r1, [r3, r2]
	at_command[AT_CREG][7] = 0x3F; //?
 80004ac:	4b7e      	ldr	r3, [pc, #504]	; (80006a8 <main+0x404>)
 80004ae:	181b      	adds	r3, r3, r0
 80004b0:	19db      	adds	r3, r3, r7
 80004b2:	229d      	movs	r2, #157	; 0x9d
 80004b4:	213f      	movs	r1, #63	; 0x3f
 80004b6:	5499      	strb	r1, [r3, r2]
	at_command[AT_CREG][8] = 0x0A; //enter
 80004b8:	4b7b      	ldr	r3, [pc, #492]	; (80006a8 <main+0x404>)
 80004ba:	181b      	adds	r3, r3, r0
 80004bc:	19db      	adds	r3, r3, r7
 80004be:	229e      	movs	r2, #158	; 0x9e
 80004c0:	210a      	movs	r1, #10
 80004c2:	5499      	strb	r1, [r3, r2]

	at_command[AT_CSQ][0] = 0x41; //A
 80004c4:	4b78      	ldr	r3, [pc, #480]	; (80006a8 <main+0x404>)
 80004c6:	181b      	adds	r3, r3, r0
 80004c8:	19db      	adds	r3, r3, r7
 80004ca:	22c8      	movs	r2, #200	; 0xc8
 80004cc:	2141      	movs	r1, #65	; 0x41
 80004ce:	5499      	strb	r1, [r3, r2]
	at_command[AT_CSQ][1] = 0x54; //T
 80004d0:	4b75      	ldr	r3, [pc, #468]	; (80006a8 <main+0x404>)
 80004d2:	181b      	adds	r3, r3, r0
 80004d4:	19db      	adds	r3, r3, r7
 80004d6:	22c9      	movs	r2, #201	; 0xc9
 80004d8:	2154      	movs	r1, #84	; 0x54
 80004da:	5499      	strb	r1, [r3, r2]
	at_command[AT_CSQ][2] = 0x2B; //+
 80004dc:	4b72      	ldr	r3, [pc, #456]	; (80006a8 <main+0x404>)
 80004de:	181b      	adds	r3, r3, r0
 80004e0:	19db      	adds	r3, r3, r7
 80004e2:	22ca      	movs	r2, #202	; 0xca
 80004e4:	212b      	movs	r1, #43	; 0x2b
 80004e6:	5499      	strb	r1, [r3, r2]
	at_command[AT_CSQ][3] = 0x43; //C
 80004e8:	4b6f      	ldr	r3, [pc, #444]	; (80006a8 <main+0x404>)
 80004ea:	181b      	adds	r3, r3, r0
 80004ec:	19db      	adds	r3, r3, r7
 80004ee:	22cb      	movs	r2, #203	; 0xcb
 80004f0:	2143      	movs	r1, #67	; 0x43
 80004f2:	5499      	strb	r1, [r3, r2]
	at_command[AT_CSQ][4] = 0x53; //S
 80004f4:	4b6c      	ldr	r3, [pc, #432]	; (80006a8 <main+0x404>)
 80004f6:	181b      	adds	r3, r3, r0
 80004f8:	19db      	adds	r3, r3, r7
 80004fa:	22cc      	movs	r2, #204	; 0xcc
 80004fc:	2153      	movs	r1, #83	; 0x53
 80004fe:	5499      	strb	r1, [r3, r2]
	at_command[AT_CSQ][5] = 0x51; //Q
 8000500:	4b69      	ldr	r3, [pc, #420]	; (80006a8 <main+0x404>)
 8000502:	181b      	adds	r3, r3, r0
 8000504:	19db      	adds	r3, r3, r7
 8000506:	22cd      	movs	r2, #205	; 0xcd
 8000508:	2151      	movs	r1, #81	; 0x51
 800050a:	5499      	strb	r1, [r3, r2]
	at_command[AT_CSQ][6] = 0x0A; //?
 800050c:	4b66      	ldr	r3, [pc, #408]	; (80006a8 <main+0x404>)
 800050e:	181b      	adds	r3, r3, r0
 8000510:	19db      	adds	r3, r3, r7
 8000512:	22ce      	movs	r2, #206	; 0xce
 8000514:	210a      	movs	r1, #10
 8000516:	5499      	strb	r1, [r3, r2]

	at_command[AT_CSTT][0]  = 0x41; //A
 8000518:	4b63      	ldr	r3, [pc, #396]	; (80006a8 <main+0x404>)
 800051a:	181b      	adds	r3, r3, r0
 800051c:	19db      	adds	r3, r3, r7
 800051e:	22fa      	movs	r2, #250	; 0xfa
 8000520:	2141      	movs	r1, #65	; 0x41
 8000522:	5499      	strb	r1, [r3, r2]
	at_command[AT_CSTT][1]  = 0x54; //T
 8000524:	4b60      	ldr	r3, [pc, #384]	; (80006a8 <main+0x404>)
 8000526:	181b      	adds	r3, r3, r0
 8000528:	19db      	adds	r3, r3, r7
 800052a:	22fb      	movs	r2, #251	; 0xfb
 800052c:	2154      	movs	r1, #84	; 0x54
 800052e:	5499      	strb	r1, [r3, r2]
	at_command[AT_CSTT][2]  = 0x2B; //+
 8000530:	4b5d      	ldr	r3, [pc, #372]	; (80006a8 <main+0x404>)
 8000532:	181b      	adds	r3, r3, r0
 8000534:	19db      	adds	r3, r3, r7
 8000536:	22fc      	movs	r2, #252	; 0xfc
 8000538:	212b      	movs	r1, #43	; 0x2b
 800053a:	5499      	strb	r1, [r3, r2]
	at_command[AT_CSTT][3]  = 0x43; //C
 800053c:	4b5a      	ldr	r3, [pc, #360]	; (80006a8 <main+0x404>)
 800053e:	181b      	adds	r3, r3, r0
 8000540:	19db      	adds	r3, r3, r7
 8000542:	22fd      	movs	r2, #253	; 0xfd
 8000544:	2143      	movs	r1, #67	; 0x43
 8000546:	5499      	strb	r1, [r3, r2]
	at_command[AT_CSTT][4]  = 0x53; //S
 8000548:	4b57      	ldr	r3, [pc, #348]	; (80006a8 <main+0x404>)
 800054a:	181b      	adds	r3, r3, r0
 800054c:	19db      	adds	r3, r3, r7
 800054e:	22fe      	movs	r2, #254	; 0xfe
 8000550:	2153      	movs	r1, #83	; 0x53
 8000552:	5499      	strb	r1, [r3, r2]
	at_command[AT_CSTT][5]  = 0x54; //T
 8000554:	4b54      	ldr	r3, [pc, #336]	; (80006a8 <main+0x404>)
 8000556:	181b      	adds	r3, r3, r0
 8000558:	19db      	adds	r3, r3, r7
 800055a:	22ff      	movs	r2, #255	; 0xff
 800055c:	2154      	movs	r1, #84	; 0x54
 800055e:	5499      	strb	r1, [r3, r2]
	at_command[AT_CSTT][6]  = 0x54; //T
 8000560:	4b51      	ldr	r3, [pc, #324]	; (80006a8 <main+0x404>)
 8000562:	181b      	adds	r3, r3, r0
 8000564:	19da      	adds	r2, r3, r7
 8000566:	2380      	movs	r3, #128	; 0x80
 8000568:	005b      	lsls	r3, r3, #1
 800056a:	2154      	movs	r1, #84	; 0x54
 800056c:	54d1      	strb	r1, [r2, r3]
	at_command[AT_CSTT][7]  = 0x3D; //=
 800056e:	4b4e      	ldr	r3, [pc, #312]	; (80006a8 <main+0x404>)
 8000570:	181b      	adds	r3, r3, r0
 8000572:	19da      	adds	r2, r3, r7
 8000574:	2302      	movs	r3, #2
 8000576:	33ff      	adds	r3, #255	; 0xff
 8000578:	213d      	movs	r1, #61	; 0x3d
 800057a:	54d1      	strb	r1, [r2, r3]
	at_command[AT_CSTT][8]  = 0x22; //"
 800057c:	4b4a      	ldr	r3, [pc, #296]	; (80006a8 <main+0x404>)
 800057e:	181b      	adds	r3, r3, r0
 8000580:	19da      	adds	r2, r3, r7
 8000582:	2381      	movs	r3, #129	; 0x81
 8000584:	005b      	lsls	r3, r3, #1
 8000586:	2122      	movs	r1, #34	; 0x22
 8000588:	54d1      	strb	r1, [r2, r3]
	at_command[AT_CSTT][9]  = 0x74; //t
 800058a:	4b47      	ldr	r3, [pc, #284]	; (80006a8 <main+0x404>)
 800058c:	181b      	adds	r3, r3, r0
 800058e:	19da      	adds	r2, r3, r7
 8000590:	2304      	movs	r3, #4
 8000592:	33ff      	adds	r3, #255	; 0xff
 8000594:	2174      	movs	r1, #116	; 0x74
 8000596:	54d1      	strb	r1, [r2, r3]
	at_command[AT_CSTT][10] = 0x69; //i
 8000598:	4b43      	ldr	r3, [pc, #268]	; (80006a8 <main+0x404>)
 800059a:	181b      	adds	r3, r3, r0
 800059c:	19da      	adds	r2, r3, r7
 800059e:	2382      	movs	r3, #130	; 0x82
 80005a0:	005b      	lsls	r3, r3, #1
 80005a2:	2169      	movs	r1, #105	; 0x69
 80005a4:	54d1      	strb	r1, [r2, r3]
	at_command[AT_CSTT][11] = 0x6D; //m
 80005a6:	4b40      	ldr	r3, [pc, #256]	; (80006a8 <main+0x404>)
 80005a8:	181b      	adds	r3, r3, r0
 80005aa:	19da      	adds	r2, r3, r7
 80005ac:	2306      	movs	r3, #6
 80005ae:	33ff      	adds	r3, #255	; 0xff
 80005b0:	216d      	movs	r1, #109	; 0x6d
 80005b2:	54d1      	strb	r1, [r2, r3]
	at_command[AT_CSTT][12] = 0x62; //b
 80005b4:	4b3c      	ldr	r3, [pc, #240]	; (80006a8 <main+0x404>)
 80005b6:	181b      	adds	r3, r3, r0
 80005b8:	19da      	adds	r2, r3, r7
 80005ba:	2383      	movs	r3, #131	; 0x83
 80005bc:	005b      	lsls	r3, r3, #1
 80005be:	2162      	movs	r1, #98	; 0x62
 80005c0:	54d1      	strb	r1, [r2, r3]
	at_command[AT_CSTT][13] = 0x72; //r
 80005c2:	4b39      	ldr	r3, [pc, #228]	; (80006a8 <main+0x404>)
 80005c4:	181b      	adds	r3, r3, r0
 80005c6:	19da      	adds	r2, r3, r7
 80005c8:	2308      	movs	r3, #8
 80005ca:	33ff      	adds	r3, #255	; 0xff
 80005cc:	2172      	movs	r1, #114	; 0x72
 80005ce:	54d1      	strb	r1, [r2, r3]
	at_command[AT_CSTT][14] = 0x61; //a
 80005d0:	4b35      	ldr	r3, [pc, #212]	; (80006a8 <main+0x404>)
 80005d2:	181b      	adds	r3, r3, r0
 80005d4:	19da      	adds	r2, r3, r7
 80005d6:	2384      	movs	r3, #132	; 0x84
 80005d8:	005b      	lsls	r3, r3, #1
 80005da:	2161      	movs	r1, #97	; 0x61
 80005dc:	54d1      	strb	r1, [r2, r3]
	at_command[AT_CSTT][15] = 0x73; //s
 80005de:	4b32      	ldr	r3, [pc, #200]	; (80006a8 <main+0x404>)
 80005e0:	181b      	adds	r3, r3, r0
 80005e2:	19da      	adds	r2, r3, r7
 80005e4:	230a      	movs	r3, #10
 80005e6:	33ff      	adds	r3, #255	; 0xff
 80005e8:	2173      	movs	r1, #115	; 0x73
 80005ea:	54d1      	strb	r1, [r2, r3]
	at_command[AT_CSTT][16] = 0x69; //i
 80005ec:	4b2e      	ldr	r3, [pc, #184]	; (80006a8 <main+0x404>)
 80005ee:	181b      	adds	r3, r3, r0
 80005f0:	19da      	adds	r2, r3, r7
 80005f2:	2385      	movs	r3, #133	; 0x85
 80005f4:	005b      	lsls	r3, r3, #1
 80005f6:	2169      	movs	r1, #105	; 0x69
 80005f8:	54d1      	strb	r1, [r2, r3]
	at_command[AT_CSTT][17] = 0x6C; //l
 80005fa:	4b2b      	ldr	r3, [pc, #172]	; (80006a8 <main+0x404>)
 80005fc:	181b      	adds	r3, r3, r0
 80005fe:	19da      	adds	r2, r3, r7
 8000600:	230c      	movs	r3, #12
 8000602:	33ff      	adds	r3, #255	; 0xff
 8000604:	216c      	movs	r1, #108	; 0x6c
 8000606:	54d1      	strb	r1, [r2, r3]
	at_command[AT_CSTT][18] = 0x2E; //.
 8000608:	4b27      	ldr	r3, [pc, #156]	; (80006a8 <main+0x404>)
 800060a:	181b      	adds	r3, r3, r0
 800060c:	19da      	adds	r2, r3, r7
 800060e:	2386      	movs	r3, #134	; 0x86
 8000610:	005b      	lsls	r3, r3, #1
 8000612:	212e      	movs	r1, #46	; 0x2e
 8000614:	54d1      	strb	r1, [r2, r3]
	at_command[AT_CSTT][19] = 0x62; //b
 8000616:	4b24      	ldr	r3, [pc, #144]	; (80006a8 <main+0x404>)
 8000618:	181b      	adds	r3, r3, r0
 800061a:	19da      	adds	r2, r3, r7
 800061c:	230e      	movs	r3, #14
 800061e:	33ff      	adds	r3, #255	; 0xff
 8000620:	2162      	movs	r1, #98	; 0x62
 8000622:	54d1      	strb	r1, [r2, r3]
	at_command[AT_CSTT][20] = 0x72; //r
 8000624:	4b20      	ldr	r3, [pc, #128]	; (80006a8 <main+0x404>)
 8000626:	181b      	adds	r3, r3, r0
 8000628:	19da      	adds	r2, r3, r7
 800062a:	2387      	movs	r3, #135	; 0x87
 800062c:	005b      	lsls	r3, r3, #1
 800062e:	2172      	movs	r1, #114	; 0x72
 8000630:	54d1      	strb	r1, [r2, r3]
	at_command[AT_CSTT][21] = 0x22; //"
 8000632:	4b1d      	ldr	r3, [pc, #116]	; (80006a8 <main+0x404>)
 8000634:	181b      	adds	r3, r3, r0
 8000636:	19da      	adds	r2, r3, r7
 8000638:	2310      	movs	r3, #16
 800063a:	33ff      	adds	r3, #255	; 0xff
 800063c:	2122      	movs	r1, #34	; 0x22
 800063e:	54d1      	strb	r1, [r2, r3]
	at_command[AT_CSTT][22] = 0x2C; //,
 8000640:	4b19      	ldr	r3, [pc, #100]	; (80006a8 <main+0x404>)
 8000642:	181b      	adds	r3, r3, r0
 8000644:	19da      	adds	r2, r3, r7
 8000646:	2388      	movs	r3, #136	; 0x88
 8000648:	005b      	lsls	r3, r3, #1
 800064a:	212c      	movs	r1, #44	; 0x2c
 800064c:	54d1      	strb	r1, [r2, r3]
	at_command[AT_CSTT][23] = 0x22; //"
 800064e:	4b16      	ldr	r3, [pc, #88]	; (80006a8 <main+0x404>)
 8000650:	181b      	adds	r3, r3, r0
 8000652:	19da      	adds	r2, r3, r7
 8000654:	2312      	movs	r3, #18
 8000656:	33ff      	adds	r3, #255	; 0xff
 8000658:	2122      	movs	r1, #34	; 0x22
 800065a:	54d1      	strb	r1, [r2, r3]
	at_command[AT_CSTT][24] = 0x22; //"
 800065c:	4b12      	ldr	r3, [pc, #72]	; (80006a8 <main+0x404>)
 800065e:	181b      	adds	r3, r3, r0
 8000660:	19da      	adds	r2, r3, r7
 8000662:	2389      	movs	r3, #137	; 0x89
 8000664:	005b      	lsls	r3, r3, #1
 8000666:	2122      	movs	r1, #34	; 0x22
 8000668:	54d1      	strb	r1, [r2, r3]
	at_command[AT_CSTT][25] = 0x2C; //,
 800066a:	4b0f      	ldr	r3, [pc, #60]	; (80006a8 <main+0x404>)
 800066c:	181b      	adds	r3, r3, r0
 800066e:	19da      	adds	r2, r3, r7
 8000670:	2314      	movs	r3, #20
 8000672:	33ff      	adds	r3, #255	; 0xff
 8000674:	212c      	movs	r1, #44	; 0x2c
 8000676:	54d1      	strb	r1, [r2, r3]
	at_command[AT_CSTT][26] = 0x22; //"
 8000678:	4b0b      	ldr	r3, [pc, #44]	; (80006a8 <main+0x404>)
 800067a:	181b      	adds	r3, r3, r0
 800067c:	19da      	adds	r2, r3, r7
 800067e:	238a      	movs	r3, #138	; 0x8a
 8000680:	005b      	lsls	r3, r3, #1
 8000682:	2122      	movs	r1, #34	; 0x22
 8000684:	54d1      	strb	r1, [r2, r3]
	at_command[AT_CSTT][27] = 0x22; //"
 8000686:	4b08      	ldr	r3, [pc, #32]	; (80006a8 <main+0x404>)
 8000688:	181b      	adds	r3, r3, r0
 800068a:	19da      	adds	r2, r3, r7
 800068c:	2316      	movs	r3, #22
 800068e:	33ff      	adds	r3, #255	; 0xff
 8000690:	2122      	movs	r1, #34	; 0x22
 8000692:	54d1      	strb	r1, [r2, r3]
	at_command[AT_CSTT][28] = 0x0A; //enter
 8000694:	4b04      	ldr	r3, [pc, #16]	; (80006a8 <main+0x404>)
 8000696:	181b      	adds	r3, r3, r0
 8000698:	19da      	adds	r2, r3, r7
 800069a:	238b      	movs	r3, #139	; 0x8b
 800069c:	005b      	lsls	r3, r3, #1
 800069e:	e007      	b.n	80006b0 <main+0x40c>
 80006a0:	fffffc50 	.word	0xfffffc50
 80006a4:	000003af 	.word	0x000003af
 80006a8:	fffffce8 	.word	0xfffffce8
 80006ac:	00000226 	.word	0x00000226
 80006b0:	210a      	movs	r1, #10
 80006b2:	54d1      	strb	r1, [r2, r3]

	at_command[AT_CIICR][0] = 0x41; //A
 80006b4:	4bfe      	ldr	r3, [pc, #1016]	; (8000ab0 <main+0x80c>)
 80006b6:	181b      	adds	r3, r3, r0
 80006b8:	19da      	adds	r2, r3, r7
 80006ba:	2396      	movs	r3, #150	; 0x96
 80006bc:	005b      	lsls	r3, r3, #1
 80006be:	2141      	movs	r1, #65	; 0x41
 80006c0:	54d1      	strb	r1, [r2, r3]
	at_command[AT_CIICR][1] = 0x54; //T
 80006c2:	4bfb      	ldr	r3, [pc, #1004]	; (8000ab0 <main+0x80c>)
 80006c4:	181b      	adds	r3, r3, r0
 80006c6:	19da      	adds	r2, r3, r7
 80006c8:	232e      	movs	r3, #46	; 0x2e
 80006ca:	33ff      	adds	r3, #255	; 0xff
 80006cc:	2154      	movs	r1, #84	; 0x54
 80006ce:	54d1      	strb	r1, [r2, r3]
	at_command[AT_CIICR][2] = 0x2B; //+
 80006d0:	4bf7      	ldr	r3, [pc, #988]	; (8000ab0 <main+0x80c>)
 80006d2:	181b      	adds	r3, r3, r0
 80006d4:	19da      	adds	r2, r3, r7
 80006d6:	2397      	movs	r3, #151	; 0x97
 80006d8:	005b      	lsls	r3, r3, #1
 80006da:	212b      	movs	r1, #43	; 0x2b
 80006dc:	54d1      	strb	r1, [r2, r3]
	at_command[AT_CIICR][3] = 0x43; //C
 80006de:	4bf4      	ldr	r3, [pc, #976]	; (8000ab0 <main+0x80c>)
 80006e0:	181b      	adds	r3, r3, r0
 80006e2:	19da      	adds	r2, r3, r7
 80006e4:	2330      	movs	r3, #48	; 0x30
 80006e6:	33ff      	adds	r3, #255	; 0xff
 80006e8:	2143      	movs	r1, #67	; 0x43
 80006ea:	54d1      	strb	r1, [r2, r3]
	at_command[AT_CIICR][4] = 0x49; //I
 80006ec:	4bf0      	ldr	r3, [pc, #960]	; (8000ab0 <main+0x80c>)
 80006ee:	181b      	adds	r3, r3, r0
 80006f0:	19da      	adds	r2, r3, r7
 80006f2:	2398      	movs	r3, #152	; 0x98
 80006f4:	005b      	lsls	r3, r3, #1
 80006f6:	2149      	movs	r1, #73	; 0x49
 80006f8:	54d1      	strb	r1, [r2, r3]
	at_command[AT_CIICR][5] = 0x49; //I
 80006fa:	4bed      	ldr	r3, [pc, #948]	; (8000ab0 <main+0x80c>)
 80006fc:	181b      	adds	r3, r3, r0
 80006fe:	19da      	adds	r2, r3, r7
 8000700:	2332      	movs	r3, #50	; 0x32
 8000702:	33ff      	adds	r3, #255	; 0xff
 8000704:	2149      	movs	r1, #73	; 0x49
 8000706:	54d1      	strb	r1, [r2, r3]
	at_command[AT_CIICR][6] = 0x43; //C
 8000708:	4be9      	ldr	r3, [pc, #932]	; (8000ab0 <main+0x80c>)
 800070a:	181b      	adds	r3, r3, r0
 800070c:	19da      	adds	r2, r3, r7
 800070e:	2399      	movs	r3, #153	; 0x99
 8000710:	005b      	lsls	r3, r3, #1
 8000712:	2143      	movs	r1, #67	; 0x43
 8000714:	54d1      	strb	r1, [r2, r3]
	at_command[AT_CIICR][7] = 0x52; //R
 8000716:	4be6      	ldr	r3, [pc, #920]	; (8000ab0 <main+0x80c>)
 8000718:	181b      	adds	r3, r3, r0
 800071a:	19da      	adds	r2, r3, r7
 800071c:	2334      	movs	r3, #52	; 0x34
 800071e:	33ff      	adds	r3, #255	; 0xff
 8000720:	2152      	movs	r1, #82	; 0x52
 8000722:	54d1      	strb	r1, [r2, r3]
	at_command[AT_CIICR][8] = 0x0A; //enter
 8000724:	4be2      	ldr	r3, [pc, #904]	; (8000ab0 <main+0x80c>)
 8000726:	181b      	adds	r3, r3, r0
 8000728:	19da      	adds	r2, r3, r7
 800072a:	239a      	movs	r3, #154	; 0x9a
 800072c:	005b      	lsls	r3, r3, #1
 800072e:	210a      	movs	r1, #10
 8000730:	54d1      	strb	r1, [r2, r3]

	at_command[AT_CIFSR][0] = 0x41; //A
 8000732:	4bdf      	ldr	r3, [pc, #892]	; (8000ab0 <main+0x80c>)
 8000734:	181b      	adds	r3, r3, r0
 8000736:	19da      	adds	r2, r3, r7
 8000738:	23af      	movs	r3, #175	; 0xaf
 800073a:	005b      	lsls	r3, r3, #1
 800073c:	2141      	movs	r1, #65	; 0x41
 800073e:	54d1      	strb	r1, [r2, r3]
	at_command[AT_CIFSR][1] = 0x54; //T
 8000740:	4bdb      	ldr	r3, [pc, #876]	; (8000ab0 <main+0x80c>)
 8000742:	181b      	adds	r3, r3, r0
 8000744:	19da      	adds	r2, r3, r7
 8000746:	2360      	movs	r3, #96	; 0x60
 8000748:	33ff      	adds	r3, #255	; 0xff
 800074a:	2154      	movs	r1, #84	; 0x54
 800074c:	54d1      	strb	r1, [r2, r3]
	at_command[AT_CIFSR][2] = 0x2B; //+
 800074e:	4bd8      	ldr	r3, [pc, #864]	; (8000ab0 <main+0x80c>)
 8000750:	181b      	adds	r3, r3, r0
 8000752:	19da      	adds	r2, r3, r7
 8000754:	23b0      	movs	r3, #176	; 0xb0
 8000756:	005b      	lsls	r3, r3, #1
 8000758:	212b      	movs	r1, #43	; 0x2b
 800075a:	54d1      	strb	r1, [r2, r3]
	at_command[AT_CIFSR][3] = 0x43; //C
 800075c:	4bd4      	ldr	r3, [pc, #848]	; (8000ab0 <main+0x80c>)
 800075e:	181b      	adds	r3, r3, r0
 8000760:	19da      	adds	r2, r3, r7
 8000762:	2362      	movs	r3, #98	; 0x62
 8000764:	33ff      	adds	r3, #255	; 0xff
 8000766:	2143      	movs	r1, #67	; 0x43
 8000768:	54d1      	strb	r1, [r2, r3]
	at_command[AT_CIFSR][4] = 0x49; //I
 800076a:	4bd1      	ldr	r3, [pc, #836]	; (8000ab0 <main+0x80c>)
 800076c:	181b      	adds	r3, r3, r0
 800076e:	19da      	adds	r2, r3, r7
 8000770:	23b1      	movs	r3, #177	; 0xb1
 8000772:	005b      	lsls	r3, r3, #1
 8000774:	2149      	movs	r1, #73	; 0x49
 8000776:	54d1      	strb	r1, [r2, r3]
	at_command[AT_CIFSR][5] = 0x46; //F
 8000778:	4bcd      	ldr	r3, [pc, #820]	; (8000ab0 <main+0x80c>)
 800077a:	181b      	adds	r3, r3, r0
 800077c:	19da      	adds	r2, r3, r7
 800077e:	2364      	movs	r3, #100	; 0x64
 8000780:	33ff      	adds	r3, #255	; 0xff
 8000782:	2146      	movs	r1, #70	; 0x46
 8000784:	54d1      	strb	r1, [r2, r3]
	at_command[AT_CIFSR][6] = 0x53; //S
 8000786:	4bca      	ldr	r3, [pc, #808]	; (8000ab0 <main+0x80c>)
 8000788:	181b      	adds	r3, r3, r0
 800078a:	19da      	adds	r2, r3, r7
 800078c:	23b2      	movs	r3, #178	; 0xb2
 800078e:	005b      	lsls	r3, r3, #1
 8000790:	2153      	movs	r1, #83	; 0x53
 8000792:	54d1      	strb	r1, [r2, r3]
	at_command[AT_CIFSR][7] = 0x52; //R
 8000794:	4bc6      	ldr	r3, [pc, #792]	; (8000ab0 <main+0x80c>)
 8000796:	181b      	adds	r3, r3, r0
 8000798:	19da      	adds	r2, r3, r7
 800079a:	2366      	movs	r3, #102	; 0x66
 800079c:	33ff      	adds	r3, #255	; 0xff
 800079e:	2152      	movs	r1, #82	; 0x52
 80007a0:	54d1      	strb	r1, [r2, r3]
	at_command[AT_CIFSR][8] = 0x0A; //enter
 80007a2:	4bc3      	ldr	r3, [pc, #780]	; (8000ab0 <main+0x80c>)
 80007a4:	181b      	adds	r3, r3, r0
 80007a6:	19da      	adds	r2, r3, r7
 80007a8:	23b3      	movs	r3, #179	; 0xb3
 80007aa:	005b      	lsls	r3, r3, #1
 80007ac:	210a      	movs	r1, #10
 80007ae:	54d1      	strb	r1, [r2, r3]

	at_command[AT_CIPSTART][0]  = 0x41; //A
 80007b0:	4bbf      	ldr	r3, [pc, #764]	; (8000ab0 <main+0x80c>)
 80007b2:	181b      	adds	r3, r3, r0
 80007b4:	19da      	adds	r2, r3, r7
 80007b6:	23c8      	movs	r3, #200	; 0xc8
 80007b8:	005b      	lsls	r3, r3, #1
 80007ba:	2141      	movs	r1, #65	; 0x41
 80007bc:	54d1      	strb	r1, [r2, r3]
	at_command[AT_CIPSTART][1]  = 0x54; //T
 80007be:	4bbc      	ldr	r3, [pc, #752]	; (8000ab0 <main+0x80c>)
 80007c0:	181b      	adds	r3, r3, r0
 80007c2:	19da      	adds	r2, r3, r7
 80007c4:	2392      	movs	r3, #146	; 0x92
 80007c6:	33ff      	adds	r3, #255	; 0xff
 80007c8:	2154      	movs	r1, #84	; 0x54
 80007ca:	54d1      	strb	r1, [r2, r3]
	at_command[AT_CIPSTART][2]  = 0x2B; //+
 80007cc:	4bb8      	ldr	r3, [pc, #736]	; (8000ab0 <main+0x80c>)
 80007ce:	181b      	adds	r3, r3, r0
 80007d0:	19da      	adds	r2, r3, r7
 80007d2:	23c9      	movs	r3, #201	; 0xc9
 80007d4:	005b      	lsls	r3, r3, #1
 80007d6:	212b      	movs	r1, #43	; 0x2b
 80007d8:	54d1      	strb	r1, [r2, r3]
	at_command[AT_CIPSTART][3]  = 0x43; //C
 80007da:	4bb5      	ldr	r3, [pc, #724]	; (8000ab0 <main+0x80c>)
 80007dc:	181b      	adds	r3, r3, r0
 80007de:	19da      	adds	r2, r3, r7
 80007e0:	2394      	movs	r3, #148	; 0x94
 80007e2:	33ff      	adds	r3, #255	; 0xff
 80007e4:	2143      	movs	r1, #67	; 0x43
 80007e6:	54d1      	strb	r1, [r2, r3]
	at_command[AT_CIPSTART][4]  = 0x49; //I
 80007e8:	4bb1      	ldr	r3, [pc, #708]	; (8000ab0 <main+0x80c>)
 80007ea:	181b      	adds	r3, r3, r0
 80007ec:	19da      	adds	r2, r3, r7
 80007ee:	23ca      	movs	r3, #202	; 0xca
 80007f0:	005b      	lsls	r3, r3, #1
 80007f2:	2149      	movs	r1, #73	; 0x49
 80007f4:	54d1      	strb	r1, [r2, r3]
	at_command[AT_CIPSTART][5]  = 0x50; //P
 80007f6:	4bae      	ldr	r3, [pc, #696]	; (8000ab0 <main+0x80c>)
 80007f8:	181b      	adds	r3, r3, r0
 80007fa:	19da      	adds	r2, r3, r7
 80007fc:	2396      	movs	r3, #150	; 0x96
 80007fe:	33ff      	adds	r3, #255	; 0xff
 8000800:	2150      	movs	r1, #80	; 0x50
 8000802:	54d1      	strb	r1, [r2, r3]
	at_command[AT_CIPSTART][6]  = 0x53; //S
 8000804:	4baa      	ldr	r3, [pc, #680]	; (8000ab0 <main+0x80c>)
 8000806:	181b      	adds	r3, r3, r0
 8000808:	19da      	adds	r2, r3, r7
 800080a:	23cb      	movs	r3, #203	; 0xcb
 800080c:	005b      	lsls	r3, r3, #1
 800080e:	2153      	movs	r1, #83	; 0x53
 8000810:	54d1      	strb	r1, [r2, r3]
	at_command[AT_CIPSTART][7]  = 0x54; //T
 8000812:	4ba7      	ldr	r3, [pc, #668]	; (8000ab0 <main+0x80c>)
 8000814:	181b      	adds	r3, r3, r0
 8000816:	19da      	adds	r2, r3, r7
 8000818:	2398      	movs	r3, #152	; 0x98
 800081a:	33ff      	adds	r3, #255	; 0xff
 800081c:	2154      	movs	r1, #84	; 0x54
 800081e:	54d1      	strb	r1, [r2, r3]
	at_command[AT_CIPSTART][8]  = 0x41; //A
 8000820:	4ba3      	ldr	r3, [pc, #652]	; (8000ab0 <main+0x80c>)
 8000822:	181b      	adds	r3, r3, r0
 8000824:	19da      	adds	r2, r3, r7
 8000826:	23cc      	movs	r3, #204	; 0xcc
 8000828:	005b      	lsls	r3, r3, #1
 800082a:	2141      	movs	r1, #65	; 0x41
 800082c:	54d1      	strb	r1, [r2, r3]
	at_command[AT_CIPSTART][9]  = 0x52; //R
 800082e:	4ba0      	ldr	r3, [pc, #640]	; (8000ab0 <main+0x80c>)
 8000830:	181b      	adds	r3, r3, r0
 8000832:	19da      	adds	r2, r3, r7
 8000834:	239a      	movs	r3, #154	; 0x9a
 8000836:	33ff      	adds	r3, #255	; 0xff
 8000838:	2152      	movs	r1, #82	; 0x52
 800083a:	54d1      	strb	r1, [r2, r3]
	at_command[AT_CIPSTART][10] = 0x54; //T
 800083c:	4b9c      	ldr	r3, [pc, #624]	; (8000ab0 <main+0x80c>)
 800083e:	181b      	adds	r3, r3, r0
 8000840:	19da      	adds	r2, r3, r7
 8000842:	23cd      	movs	r3, #205	; 0xcd
 8000844:	005b      	lsls	r3, r3, #1
 8000846:	2154      	movs	r1, #84	; 0x54
 8000848:	54d1      	strb	r1, [r2, r3]
	at_command[AT_CIPSTART][11] = 0x3D; //=
 800084a:	4b99      	ldr	r3, [pc, #612]	; (8000ab0 <main+0x80c>)
 800084c:	181b      	adds	r3, r3, r0
 800084e:	19da      	adds	r2, r3, r7
 8000850:	239c      	movs	r3, #156	; 0x9c
 8000852:	33ff      	adds	r3, #255	; 0xff
 8000854:	213d      	movs	r1, #61	; 0x3d
 8000856:	54d1      	strb	r1, [r2, r3]
	at_command[AT_CIPSTART][12] = 0x22; //"
 8000858:	4b95      	ldr	r3, [pc, #596]	; (8000ab0 <main+0x80c>)
 800085a:	181b      	adds	r3, r3, r0
 800085c:	19da      	adds	r2, r3, r7
 800085e:	23ce      	movs	r3, #206	; 0xce
 8000860:	005b      	lsls	r3, r3, #1
 8000862:	2122      	movs	r1, #34	; 0x22
 8000864:	54d1      	strb	r1, [r2, r3]
	at_command[AT_CIPSTART][13] = 0x54; //T
 8000866:	4b92      	ldr	r3, [pc, #584]	; (8000ab0 <main+0x80c>)
 8000868:	181b      	adds	r3, r3, r0
 800086a:	19da      	adds	r2, r3, r7
 800086c:	239e      	movs	r3, #158	; 0x9e
 800086e:	33ff      	adds	r3, #255	; 0xff
 8000870:	2154      	movs	r1, #84	; 0x54
 8000872:	54d1      	strb	r1, [r2, r3]
	at_command[AT_CIPSTART][14] = 0x43; //C
 8000874:	4b8e      	ldr	r3, [pc, #568]	; (8000ab0 <main+0x80c>)
 8000876:	181b      	adds	r3, r3, r0
 8000878:	19da      	adds	r2, r3, r7
 800087a:	23cf      	movs	r3, #207	; 0xcf
 800087c:	005b      	lsls	r3, r3, #1
 800087e:	2143      	movs	r1, #67	; 0x43
 8000880:	54d1      	strb	r1, [r2, r3]
	at_command[AT_CIPSTART][15] = 0x50; //P
 8000882:	4b8b      	ldr	r3, [pc, #556]	; (8000ab0 <main+0x80c>)
 8000884:	181b      	adds	r3, r3, r0
 8000886:	19da      	adds	r2, r3, r7
 8000888:	23a0      	movs	r3, #160	; 0xa0
 800088a:	33ff      	adds	r3, #255	; 0xff
 800088c:	2150      	movs	r1, #80	; 0x50
 800088e:	54d1      	strb	r1, [r2, r3]
	at_command[AT_CIPSTART][16] = 0x22; //"
 8000890:	4b87      	ldr	r3, [pc, #540]	; (8000ab0 <main+0x80c>)
 8000892:	181b      	adds	r3, r3, r0
 8000894:	19da      	adds	r2, r3, r7
 8000896:	23d0      	movs	r3, #208	; 0xd0
 8000898:	005b      	lsls	r3, r3, #1
 800089a:	2122      	movs	r1, #34	; 0x22
 800089c:	54d1      	strb	r1, [r2, r3]
	at_command[AT_CIPSTART][17] = 0x2C; //,
 800089e:	4b84      	ldr	r3, [pc, #528]	; (8000ab0 <main+0x80c>)
 80008a0:	181b      	adds	r3, r3, r0
 80008a2:	19da      	adds	r2, r3, r7
 80008a4:	23a2      	movs	r3, #162	; 0xa2
 80008a6:	33ff      	adds	r3, #255	; 0xff
 80008a8:	212c      	movs	r1, #44	; 0x2c
 80008aa:	54d1      	strb	r1, [r2, r3]
	at_command[AT_CIPSTART][18] = 0x22; //"
 80008ac:	4b80      	ldr	r3, [pc, #512]	; (8000ab0 <main+0x80c>)
 80008ae:	181b      	adds	r3, r3, r0
 80008b0:	19da      	adds	r2, r3, r7
 80008b2:	23d1      	movs	r3, #209	; 0xd1
 80008b4:	005b      	lsls	r3, r3, #1
 80008b6:	2122      	movs	r1, #34	; 0x22
 80008b8:	54d1      	strb	r1, [r2, r3]
	at_command[AT_CIPSTART][19] = 0x6D; //m
 80008ba:	4b7d      	ldr	r3, [pc, #500]	; (8000ab0 <main+0x80c>)
 80008bc:	181b      	adds	r3, r3, r0
 80008be:	19da      	adds	r2, r3, r7
 80008c0:	23a4      	movs	r3, #164	; 0xa4
 80008c2:	33ff      	adds	r3, #255	; 0xff
 80008c4:	216d      	movs	r1, #109	; 0x6d
 80008c6:	54d1      	strb	r1, [r2, r3]
	at_command[AT_CIPSTART][20] = 0x71; //q
 80008c8:	4b79      	ldr	r3, [pc, #484]	; (8000ab0 <main+0x80c>)
 80008ca:	181b      	adds	r3, r3, r0
 80008cc:	19da      	adds	r2, r3, r7
 80008ce:	23d2      	movs	r3, #210	; 0xd2
 80008d0:	005b      	lsls	r3, r3, #1
 80008d2:	2171      	movs	r1, #113	; 0x71
 80008d4:	54d1      	strb	r1, [r2, r3]
	at_command[AT_CIPSTART][21] = 0x74; //t
 80008d6:	4b76      	ldr	r3, [pc, #472]	; (8000ab0 <main+0x80c>)
 80008d8:	181b      	adds	r3, r3, r0
 80008da:	19da      	adds	r2, r3, r7
 80008dc:	23a6      	movs	r3, #166	; 0xa6
 80008de:	33ff      	adds	r3, #255	; 0xff
 80008e0:	2174      	movs	r1, #116	; 0x74
 80008e2:	54d1      	strb	r1, [r2, r3]
	at_command[AT_CIPSTART][22] = 0x74; //t
 80008e4:	4b72      	ldr	r3, [pc, #456]	; (8000ab0 <main+0x80c>)
 80008e6:	181b      	adds	r3, r3, r0
 80008e8:	19da      	adds	r2, r3, r7
 80008ea:	23d3      	movs	r3, #211	; 0xd3
 80008ec:	005b      	lsls	r3, r3, #1
 80008ee:	2174      	movs	r1, #116	; 0x74
 80008f0:	54d1      	strb	r1, [r2, r3]
	at_command[AT_CIPSTART][23] = 0x2E; //.
 80008f2:	4b6f      	ldr	r3, [pc, #444]	; (8000ab0 <main+0x80c>)
 80008f4:	181b      	adds	r3, r3, r0
 80008f6:	19da      	adds	r2, r3, r7
 80008f8:	23a8      	movs	r3, #168	; 0xa8
 80008fa:	33ff      	adds	r3, #255	; 0xff
 80008fc:	212e      	movs	r1, #46	; 0x2e
 80008fe:	54d1      	strb	r1, [r2, r3]
	at_command[AT_CIPSTART][24] = 0x65; //e
 8000900:	4b6b      	ldr	r3, [pc, #428]	; (8000ab0 <main+0x80c>)
 8000902:	181b      	adds	r3, r3, r0
 8000904:	19da      	adds	r2, r3, r7
 8000906:	23d4      	movs	r3, #212	; 0xd4
 8000908:	005b      	lsls	r3, r3, #1
 800090a:	2165      	movs	r1, #101	; 0x65
 800090c:	54d1      	strb	r1, [r2, r3]
	at_command[AT_CIPSTART][25] = 0x63; //c
 800090e:	4b68      	ldr	r3, [pc, #416]	; (8000ab0 <main+0x80c>)
 8000910:	181b      	adds	r3, r3, r0
 8000912:	19da      	adds	r2, r3, r7
 8000914:	23aa      	movs	r3, #170	; 0xaa
 8000916:	33ff      	adds	r3, #255	; 0xff
 8000918:	2163      	movs	r1, #99	; 0x63
 800091a:	54d1      	strb	r1, [r2, r3]
	at_command[AT_CIPSTART][26] = 0x6C; //l
 800091c:	4b64      	ldr	r3, [pc, #400]	; (8000ab0 <main+0x80c>)
 800091e:	181b      	adds	r3, r3, r0
 8000920:	19da      	adds	r2, r3, r7
 8000922:	23d5      	movs	r3, #213	; 0xd5
 8000924:	005b      	lsls	r3, r3, #1
 8000926:	216c      	movs	r1, #108	; 0x6c
 8000928:	54d1      	strb	r1, [r2, r3]
	at_command[AT_CIPSTART][27] = 0x69; //i
 800092a:	4b61      	ldr	r3, [pc, #388]	; (8000ab0 <main+0x80c>)
 800092c:	181b      	adds	r3, r3, r0
 800092e:	19da      	adds	r2, r3, r7
 8000930:	23ac      	movs	r3, #172	; 0xac
 8000932:	33ff      	adds	r3, #255	; 0xff
 8000934:	2169      	movs	r1, #105	; 0x69
 8000936:	54d1      	strb	r1, [r2, r3]
	at_command[AT_CIPSTART][28] = 0x70; //p
 8000938:	4b5d      	ldr	r3, [pc, #372]	; (8000ab0 <main+0x80c>)
 800093a:	181b      	adds	r3, r3, r0
 800093c:	19da      	adds	r2, r3, r7
 800093e:	23d6      	movs	r3, #214	; 0xd6
 8000940:	005b      	lsls	r3, r3, #1
 8000942:	2170      	movs	r1, #112	; 0x70
 8000944:	54d1      	strb	r1, [r2, r3]
	at_command[AT_CIPSTART][29] = 0x73; //s
 8000946:	4b5a      	ldr	r3, [pc, #360]	; (8000ab0 <main+0x80c>)
 8000948:	181b      	adds	r3, r3, r0
 800094a:	19da      	adds	r2, r3, r7
 800094c:	23ae      	movs	r3, #174	; 0xae
 800094e:	33ff      	adds	r3, #255	; 0xff
 8000950:	2173      	movs	r1, #115	; 0x73
 8000952:	54d1      	strb	r1, [r2, r3]
	at_command[AT_CIPSTART][30] = 0x65; //e
 8000954:	4b56      	ldr	r3, [pc, #344]	; (8000ab0 <main+0x80c>)
 8000956:	181b      	adds	r3, r3, r0
 8000958:	19da      	adds	r2, r3, r7
 800095a:	23d7      	movs	r3, #215	; 0xd7
 800095c:	005b      	lsls	r3, r3, #1
 800095e:	2165      	movs	r1, #101	; 0x65
 8000960:	54d1      	strb	r1, [r2, r3]
	at_command[AT_CIPSTART][31] = 0x70; //p
 8000962:	4b53      	ldr	r3, [pc, #332]	; (8000ab0 <main+0x80c>)
 8000964:	181b      	adds	r3, r3, r0
 8000966:	19da      	adds	r2, r3, r7
 8000968:	23b0      	movs	r3, #176	; 0xb0
 800096a:	33ff      	adds	r3, #255	; 0xff
 800096c:	2170      	movs	r1, #112	; 0x70
 800096e:	54d1      	strb	r1, [r2, r3]
	at_command[AT_CIPSTART][32] = 0x72; //r
 8000970:	4b4f      	ldr	r3, [pc, #316]	; (8000ab0 <main+0x80c>)
 8000972:	181b      	adds	r3, r3, r0
 8000974:	19da      	adds	r2, r3, r7
 8000976:	23d8      	movs	r3, #216	; 0xd8
 8000978:	005b      	lsls	r3, r3, #1
 800097a:	2172      	movs	r1, #114	; 0x72
 800097c:	54d1      	strb	r1, [r2, r3]
	at_command[AT_CIPSTART][33] = 0x6F; //o
 800097e:	4b4c      	ldr	r3, [pc, #304]	; (8000ab0 <main+0x80c>)
 8000980:	181b      	adds	r3, r3, r0
 8000982:	19da      	adds	r2, r3, r7
 8000984:	23b2      	movs	r3, #178	; 0xb2
 8000986:	33ff      	adds	r3, #255	; 0xff
 8000988:	216f      	movs	r1, #111	; 0x6f
 800098a:	54d1      	strb	r1, [r2, r3]
	at_command[AT_CIPSTART][34] = 0x6A; //j
 800098c:	4b48      	ldr	r3, [pc, #288]	; (8000ab0 <main+0x80c>)
 800098e:	181b      	adds	r3, r3, r0
 8000990:	19da      	adds	r2, r3, r7
 8000992:	23d9      	movs	r3, #217	; 0xd9
 8000994:	005b      	lsls	r3, r3, #1
 8000996:	216a      	movs	r1, #106	; 0x6a
 8000998:	54d1      	strb	r1, [r2, r3]
	at_command[AT_CIPSTART][35] = 0x65; //e
 800099a:	4b45      	ldr	r3, [pc, #276]	; (8000ab0 <main+0x80c>)
 800099c:	181b      	adds	r3, r3, r0
 800099e:	19da      	adds	r2, r3, r7
 80009a0:	23b4      	movs	r3, #180	; 0xb4
 80009a2:	33ff      	adds	r3, #255	; 0xff
 80009a4:	2165      	movs	r1, #101	; 0x65
 80009a6:	54d1      	strb	r1, [r2, r3]
	at_command[AT_CIPSTART][36] = 0x63; //c
 80009a8:	4b41      	ldr	r3, [pc, #260]	; (8000ab0 <main+0x80c>)
 80009aa:	181b      	adds	r3, r3, r0
 80009ac:	19da      	adds	r2, r3, r7
 80009ae:	23da      	movs	r3, #218	; 0xda
 80009b0:	005b      	lsls	r3, r3, #1
 80009b2:	2163      	movs	r1, #99	; 0x63
 80009b4:	54d1      	strb	r1, [r2, r3]
	at_command[AT_CIPSTART][37] = 0x74; //t
 80009b6:	4b3e      	ldr	r3, [pc, #248]	; (8000ab0 <main+0x80c>)
 80009b8:	181b      	adds	r3, r3, r0
 80009ba:	19da      	adds	r2, r3, r7
 80009bc:	23b6      	movs	r3, #182	; 0xb6
 80009be:	33ff      	adds	r3, #255	; 0xff
 80009c0:	2174      	movs	r1, #116	; 0x74
 80009c2:	54d1      	strb	r1, [r2, r3]
	at_command[AT_CIPSTART][38] = 0x73; //s
 80009c4:	4b3a      	ldr	r3, [pc, #232]	; (8000ab0 <main+0x80c>)
 80009c6:	181b      	adds	r3, r3, r0
 80009c8:	19da      	adds	r2, r3, r7
 80009ca:	23db      	movs	r3, #219	; 0xdb
 80009cc:	005b      	lsls	r3, r3, #1
 80009ce:	2173      	movs	r1, #115	; 0x73
 80009d0:	54d1      	strb	r1, [r2, r3]
	at_command[AT_CIPSTART][39] = 0x2E; //.
 80009d2:	4b37      	ldr	r3, [pc, #220]	; (8000ab0 <main+0x80c>)
 80009d4:	181b      	adds	r3, r3, r0
 80009d6:	19da      	adds	r2, r3, r7
 80009d8:	23b8      	movs	r3, #184	; 0xb8
 80009da:	33ff      	adds	r3, #255	; 0xff
 80009dc:	212e      	movs	r1, #46	; 0x2e
 80009de:	54d1      	strb	r1, [r2, r3]
	at_command[AT_CIPSTART][40] = 0x69; //i
 80009e0:	4b33      	ldr	r3, [pc, #204]	; (8000ab0 <main+0x80c>)
 80009e2:	181b      	adds	r3, r3, r0
 80009e4:	19da      	adds	r2, r3, r7
 80009e6:	23dc      	movs	r3, #220	; 0xdc
 80009e8:	005b      	lsls	r3, r3, #1
 80009ea:	2169      	movs	r1, #105	; 0x69
 80009ec:	54d1      	strb	r1, [r2, r3]
	at_command[AT_CIPSTART][41] = 0x6F; //o
 80009ee:	4b30      	ldr	r3, [pc, #192]	; (8000ab0 <main+0x80c>)
 80009f0:	181b      	adds	r3, r3, r0
 80009f2:	19da      	adds	r2, r3, r7
 80009f4:	23ba      	movs	r3, #186	; 0xba
 80009f6:	33ff      	adds	r3, #255	; 0xff
 80009f8:	216f      	movs	r1, #111	; 0x6f
 80009fa:	54d1      	strb	r1, [r2, r3]
	at_command[AT_CIPSTART][42] = 0x22; //"
 80009fc:	4b2c      	ldr	r3, [pc, #176]	; (8000ab0 <main+0x80c>)
 80009fe:	181b      	adds	r3, r3, r0
 8000a00:	19da      	adds	r2, r3, r7
 8000a02:	23dd      	movs	r3, #221	; 0xdd
 8000a04:	005b      	lsls	r3, r3, #1
 8000a06:	2122      	movs	r1, #34	; 0x22
 8000a08:	54d1      	strb	r1, [r2, r3]
	at_command[AT_CIPSTART][43] = 0x2C; //,
 8000a0a:	4b29      	ldr	r3, [pc, #164]	; (8000ab0 <main+0x80c>)
 8000a0c:	181b      	adds	r3, r3, r0
 8000a0e:	19da      	adds	r2, r3, r7
 8000a10:	23bc      	movs	r3, #188	; 0xbc
 8000a12:	33ff      	adds	r3, #255	; 0xff
 8000a14:	212c      	movs	r1, #44	; 0x2c
 8000a16:	54d1      	strb	r1, [r2, r3]
	at_command[AT_CIPSTART][44] = 0x31; //1
 8000a18:	4b25      	ldr	r3, [pc, #148]	; (8000ab0 <main+0x80c>)
 8000a1a:	181b      	adds	r3, r3, r0
 8000a1c:	19da      	adds	r2, r3, r7
 8000a1e:	23de      	movs	r3, #222	; 0xde
 8000a20:	005b      	lsls	r3, r3, #1
 8000a22:	2131      	movs	r1, #49	; 0x31
 8000a24:	54d1      	strb	r1, [r2, r3]
	at_command[AT_CIPSTART][45] = 0x38; //8
 8000a26:	4b22      	ldr	r3, [pc, #136]	; (8000ab0 <main+0x80c>)
 8000a28:	181b      	adds	r3, r3, r0
 8000a2a:	19da      	adds	r2, r3, r7
 8000a2c:	23be      	movs	r3, #190	; 0xbe
 8000a2e:	33ff      	adds	r3, #255	; 0xff
 8000a30:	2138      	movs	r1, #56	; 0x38
 8000a32:	54d1      	strb	r1, [r2, r3]
	at_command[AT_CIPSTART][46] = 0x38; //8
 8000a34:	4b1e      	ldr	r3, [pc, #120]	; (8000ab0 <main+0x80c>)
 8000a36:	181b      	adds	r3, r3, r0
 8000a38:	19da      	adds	r2, r3, r7
 8000a3a:	23df      	movs	r3, #223	; 0xdf
 8000a3c:	005b      	lsls	r3, r3, #1
 8000a3e:	2138      	movs	r1, #56	; 0x38
 8000a40:	54d1      	strb	r1, [r2, r3]
	at_command[AT_CIPSTART][47] = 0x33; //3
 8000a42:	4b1b      	ldr	r3, [pc, #108]	; (8000ab0 <main+0x80c>)
 8000a44:	181b      	adds	r3, r3, r0
 8000a46:	19da      	adds	r2, r3, r7
 8000a48:	23c0      	movs	r3, #192	; 0xc0
 8000a4a:	33ff      	adds	r3, #255	; 0xff
 8000a4c:	2133      	movs	r1, #51	; 0x33
 8000a4e:	54d1      	strb	r1, [r2, r3]
	at_command[AT_CIPSTART][48] = 0x0A; //enter
 8000a50:	4b17      	ldr	r3, [pc, #92]	; (8000ab0 <main+0x80c>)
 8000a52:	181b      	adds	r3, r3, r0
 8000a54:	19da      	adds	r2, r3, r7
 8000a56:	23e0      	movs	r3, #224	; 0xe0
 8000a58:	005b      	lsls	r3, r3, #1
 8000a5a:	210a      	movs	r1, #10
 8000a5c:	54d1      	strb	r1, [r2, r3]

	at_command[AT_CIPSEND][0]  = 0x41; //A
 8000a5e:	4b14      	ldr	r3, [pc, #80]	; (8000ab0 <main+0x80c>)
 8000a60:	181b      	adds	r3, r3, r0
 8000a62:	19da      	adds	r2, r3, r7
 8000a64:	23e1      	movs	r3, #225	; 0xe1
 8000a66:	005b      	lsls	r3, r3, #1
 8000a68:	2141      	movs	r1, #65	; 0x41
 8000a6a:	54d1      	strb	r1, [r2, r3]
	at_command[AT_CIPSEND][1]  = 0x54; //T
 8000a6c:	4b10      	ldr	r3, [pc, #64]	; (8000ab0 <main+0x80c>)
 8000a6e:	181b      	adds	r3, r3, r0
 8000a70:	19da      	adds	r2, r3, r7
 8000a72:	23c4      	movs	r3, #196	; 0xc4
 8000a74:	33ff      	adds	r3, #255	; 0xff
 8000a76:	2154      	movs	r1, #84	; 0x54
 8000a78:	54d1      	strb	r1, [r2, r3]
	at_command[AT_CIPSEND][2]  = 0x2B; //+
 8000a7a:	4b0d      	ldr	r3, [pc, #52]	; (8000ab0 <main+0x80c>)
 8000a7c:	181b      	adds	r3, r3, r0
 8000a7e:	19da      	adds	r2, r3, r7
 8000a80:	23e2      	movs	r3, #226	; 0xe2
 8000a82:	005b      	lsls	r3, r3, #1
 8000a84:	212b      	movs	r1, #43	; 0x2b
 8000a86:	54d1      	strb	r1, [r2, r3]
	at_command[AT_CIPSEND][3]  = 0x43; //C
 8000a88:	4b09      	ldr	r3, [pc, #36]	; (8000ab0 <main+0x80c>)
 8000a8a:	181b      	adds	r3, r3, r0
 8000a8c:	19da      	adds	r2, r3, r7
 8000a8e:	23c6      	movs	r3, #198	; 0xc6
 8000a90:	33ff      	adds	r3, #255	; 0xff
 8000a92:	2143      	movs	r1, #67	; 0x43
 8000a94:	54d1      	strb	r1, [r2, r3]
	at_command[AT_CIPSEND][4]  = 0x49; //I
 8000a96:	4b06      	ldr	r3, [pc, #24]	; (8000ab0 <main+0x80c>)
 8000a98:	181b      	adds	r3, r3, r0
 8000a9a:	19da      	adds	r2, r3, r7
 8000a9c:	23e3      	movs	r3, #227	; 0xe3
 8000a9e:	005b      	lsls	r3, r3, #1
 8000aa0:	2149      	movs	r1, #73	; 0x49
 8000aa2:	54d1      	strb	r1, [r2, r3]
	at_command[AT_CIPSEND][5]  = 0x50; //P
 8000aa4:	4b02      	ldr	r3, [pc, #8]	; (8000ab0 <main+0x80c>)
 8000aa6:	181b      	adds	r3, r3, r0
 8000aa8:	19da      	adds	r2, r3, r7
 8000aaa:	23c8      	movs	r3, #200	; 0xc8
 8000aac:	e002      	b.n	8000ab4 <main+0x810>
 8000aae:	46c0      	nop			; (mov r8, r8)
 8000ab0:	fffffce8 	.word	0xfffffce8
 8000ab4:	33ff      	adds	r3, #255	; 0xff
 8000ab6:	2150      	movs	r1, #80	; 0x50
 8000ab8:	54d1      	strb	r1, [r2, r3]
	at_command[AT_CIPSEND][6]  = 0x53; //S
 8000aba:	4bfe      	ldr	r3, [pc, #1016]	; (8000eb4 <main+0xc10>)
 8000abc:	181b      	adds	r3, r3, r0
 8000abe:	19da      	adds	r2, r3, r7
 8000ac0:	23e4      	movs	r3, #228	; 0xe4
 8000ac2:	005b      	lsls	r3, r3, #1
 8000ac4:	2153      	movs	r1, #83	; 0x53
 8000ac6:	54d1      	strb	r1, [r2, r3]
	at_command[AT_CIPSEND][7]  = 0x45; //E
 8000ac8:	4bfa      	ldr	r3, [pc, #1000]	; (8000eb4 <main+0xc10>)
 8000aca:	181b      	adds	r3, r3, r0
 8000acc:	19da      	adds	r2, r3, r7
 8000ace:	23ca      	movs	r3, #202	; 0xca
 8000ad0:	33ff      	adds	r3, #255	; 0xff
 8000ad2:	2145      	movs	r1, #69	; 0x45
 8000ad4:	54d1      	strb	r1, [r2, r3]
	at_command[AT_CIPSEND][8]  = 0x4E; //N
 8000ad6:	4bf7      	ldr	r3, [pc, #988]	; (8000eb4 <main+0xc10>)
 8000ad8:	181b      	adds	r3, r3, r0
 8000ada:	19da      	adds	r2, r3, r7
 8000adc:	23e5      	movs	r3, #229	; 0xe5
 8000ade:	005b      	lsls	r3, r3, #1
 8000ae0:	214e      	movs	r1, #78	; 0x4e
 8000ae2:	54d1      	strb	r1, [r2, r3]
	at_command[AT_CIPSEND][9]  = 0x44; //D
 8000ae4:	4bf3      	ldr	r3, [pc, #972]	; (8000eb4 <main+0xc10>)
 8000ae6:	181b      	adds	r3, r3, r0
 8000ae8:	19da      	adds	r2, r3, r7
 8000aea:	23cc      	movs	r3, #204	; 0xcc
 8000aec:	33ff      	adds	r3, #255	; 0xff
 8000aee:	2144      	movs	r1, #68	; 0x44
 8000af0:	54d1      	strb	r1, [r2, r3]
	at_command[AT_CIPSEND][10] = 0x0A; //enter
 8000af2:	4bf0      	ldr	r3, [pc, #960]	; (8000eb4 <main+0xc10>)
 8000af4:	181b      	adds	r3, r3, r0
 8000af6:	19da      	adds	r2, r3, r7
 8000af8:	23e6      	movs	r3, #230	; 0xe6
 8000afa:	005b      	lsls	r3, r3, #1
 8000afc:	210a      	movs	r1, #10
 8000afe:	54d1      	strb	r1, [r2, r3]

	at_command[AT_CIPCLOSE][0]   = 0x41; //A
 8000b00:	4bec      	ldr	r3, [pc, #944]	; (8000eb4 <main+0xc10>)
 8000b02:	181b      	adds	r3, r3, r0
 8000b04:	19da      	adds	r2, r3, r7
 8000b06:	23fa      	movs	r3, #250	; 0xfa
 8000b08:	005b      	lsls	r3, r3, #1
 8000b0a:	2141      	movs	r1, #65	; 0x41
 8000b0c:	54d1      	strb	r1, [r2, r3]
	at_command[AT_CIPCLOSE][1]   = 0x54; //T
 8000b0e:	4be9      	ldr	r3, [pc, #932]	; (8000eb4 <main+0xc10>)
 8000b10:	181b      	adds	r3, r3, r0
 8000b12:	19da      	adds	r2, r3, r7
 8000b14:	23f6      	movs	r3, #246	; 0xf6
 8000b16:	33ff      	adds	r3, #255	; 0xff
 8000b18:	2154      	movs	r1, #84	; 0x54
 8000b1a:	54d1      	strb	r1, [r2, r3]
	at_command[AT_CIPCLOSE][2]   = 0x2B; //+
 8000b1c:	4be5      	ldr	r3, [pc, #916]	; (8000eb4 <main+0xc10>)
 8000b1e:	181b      	adds	r3, r3, r0
 8000b20:	19da      	adds	r2, r3, r7
 8000b22:	23fb      	movs	r3, #251	; 0xfb
 8000b24:	005b      	lsls	r3, r3, #1
 8000b26:	212b      	movs	r1, #43	; 0x2b
 8000b28:	54d1      	strb	r1, [r2, r3]
	at_command[AT_CIPCLOSE][3]   = 0x43; //C
 8000b2a:	4be2      	ldr	r3, [pc, #904]	; (8000eb4 <main+0xc10>)
 8000b2c:	181b      	adds	r3, r3, r0
 8000b2e:	19da      	adds	r2, r3, r7
 8000b30:	23f8      	movs	r3, #248	; 0xf8
 8000b32:	33ff      	adds	r3, #255	; 0xff
 8000b34:	2143      	movs	r1, #67	; 0x43
 8000b36:	54d1      	strb	r1, [r2, r3]
	at_command[AT_CIPCLOSE][4]   = 0x49; //I
 8000b38:	4bde      	ldr	r3, [pc, #888]	; (8000eb4 <main+0xc10>)
 8000b3a:	181b      	adds	r3, r3, r0
 8000b3c:	19da      	adds	r2, r3, r7
 8000b3e:	23fc      	movs	r3, #252	; 0xfc
 8000b40:	005b      	lsls	r3, r3, #1
 8000b42:	2149      	movs	r1, #73	; 0x49
 8000b44:	54d1      	strb	r1, [r2, r3]
	at_command[AT_CIPCLOSE][5]   = 0x50; //P
 8000b46:	4bdb      	ldr	r3, [pc, #876]	; (8000eb4 <main+0xc10>)
 8000b48:	181b      	adds	r3, r3, r0
 8000b4a:	19da      	adds	r2, r3, r7
 8000b4c:	23fa      	movs	r3, #250	; 0xfa
 8000b4e:	33ff      	adds	r3, #255	; 0xff
 8000b50:	2150      	movs	r1, #80	; 0x50
 8000b52:	54d1      	strb	r1, [r2, r3]
	at_command[AT_CIPCLOSE][6]   = 0x43; //C
 8000b54:	4bd7      	ldr	r3, [pc, #860]	; (8000eb4 <main+0xc10>)
 8000b56:	181b      	adds	r3, r3, r0
 8000b58:	19da      	adds	r2, r3, r7
 8000b5a:	23fd      	movs	r3, #253	; 0xfd
 8000b5c:	005b      	lsls	r3, r3, #1
 8000b5e:	2143      	movs	r1, #67	; 0x43
 8000b60:	54d1      	strb	r1, [r2, r3]
	at_command[AT_CIPCLOSE][7]   = 0x4C; //L
 8000b62:	4bd4      	ldr	r3, [pc, #848]	; (8000eb4 <main+0xc10>)
 8000b64:	181b      	adds	r3, r3, r0
 8000b66:	19da      	adds	r2, r3, r7
 8000b68:	23fc      	movs	r3, #252	; 0xfc
 8000b6a:	33ff      	adds	r3, #255	; 0xff
 8000b6c:	214c      	movs	r1, #76	; 0x4c
 8000b6e:	54d1      	strb	r1, [r2, r3]
	at_command[AT_CIPCLOSE][8]   = 0x4F; //O
 8000b70:	4bd0      	ldr	r3, [pc, #832]	; (8000eb4 <main+0xc10>)
 8000b72:	181b      	adds	r3, r3, r0
 8000b74:	19da      	adds	r2, r3, r7
 8000b76:	23fe      	movs	r3, #254	; 0xfe
 8000b78:	005b      	lsls	r3, r3, #1
 8000b7a:	214f      	movs	r1, #79	; 0x4f
 8000b7c:	54d1      	strb	r1, [r2, r3]
	at_command[AT_CIPCLOSE][9]   = 0x53; //S
 8000b7e:	4bcd      	ldr	r3, [pc, #820]	; (8000eb4 <main+0xc10>)
 8000b80:	181b      	adds	r3, r3, r0
 8000b82:	19da      	adds	r2, r3, r7
 8000b84:	23fe      	movs	r3, #254	; 0xfe
 8000b86:	33ff      	adds	r3, #255	; 0xff
 8000b88:	2153      	movs	r1, #83	; 0x53
 8000b8a:	54d1      	strb	r1, [r2, r3]
	at_command[AT_CIPCLOSE][10]  = 0x45; //E
 8000b8c:	4bc9      	ldr	r3, [pc, #804]	; (8000eb4 <main+0xc10>)
 8000b8e:	181b      	adds	r3, r3, r0
 8000b90:	19da      	adds	r2, r3, r7
 8000b92:	23ff      	movs	r3, #255	; 0xff
 8000b94:	005b      	lsls	r3, r3, #1
 8000b96:	2145      	movs	r1, #69	; 0x45
 8000b98:	54d1      	strb	r1, [r2, r3]
	at_command[AT_CIPCLOSE][11]  = 0x0A; //enter
 8000b9a:	4bc6      	ldr	r3, [pc, #792]	; (8000eb4 <main+0xc10>)
 8000b9c:	0004      	movs	r4, r0
 8000b9e:	191b      	adds	r3, r3, r4
 8000ba0:	19db      	adds	r3, r3, r7
 8000ba2:	4ac5      	ldr	r2, [pc, #788]	; (8000eb8 <main+0xc14>)
 8000ba4:	210a      	movs	r1, #10
 8000ba6:	5499      	strb	r1, [r3, r2]

	unsigned char mqtt_packt_msg[100] = {0};
 8000ba8:	4bc4      	ldr	r3, [pc, #784]	; (8000ebc <main+0xc18>)
 8000baa:	191b      	adds	r3, r3, r4
 8000bac:	19db      	adds	r3, r3, r7
 8000bae:	2200      	movs	r2, #0
 8000bb0:	601a      	str	r2, [r3, #0]
 8000bb2:	3304      	adds	r3, #4
 8000bb4:	2260      	movs	r2, #96	; 0x60
 8000bb6:	2100      	movs	r1, #0
 8000bb8:	0018      	movs	r0, r3
 8000bba:	f003 ff71 	bl	8004aa0 <memset>

	mqtt_packt_msg[0]  = 0x10; // mqtt connect packet
 8000bbe:	4bbf      	ldr	r3, [pc, #764]	; (8000ebc <main+0xc18>)
 8000bc0:	191b      	adds	r3, r3, r4
 8000bc2:	19db      	adds	r3, r3, r7
 8000bc4:	2210      	movs	r2, #16
 8000bc6:	701a      	strb	r2, [r3, #0]
	mqtt_packt_msg[1]  = 0x13; // remaining length
 8000bc8:	4bbc      	ldr	r3, [pc, #752]	; (8000ebc <main+0xc18>)
 8000bca:	191b      	adds	r3, r3, r4
 8000bcc:	19db      	adds	r3, r3, r7
 8000bce:	2213      	movs	r2, #19
 8000bd0:	705a      	strb	r2, [r3, #1]
	mqtt_packt_msg[2]  = 0x00; // protocol length
 8000bd2:	4bba      	ldr	r3, [pc, #744]	; (8000ebc <main+0xc18>)
 8000bd4:	191b      	adds	r3, r3, r4
 8000bd6:	19db      	adds	r3, r3, r7
 8000bd8:	2200      	movs	r2, #0
 8000bda:	709a      	strb	r2, [r3, #2]
	mqtt_packt_msg[3]  = 0x04; // protocol length
 8000bdc:	4bb7      	ldr	r3, [pc, #732]	; (8000ebc <main+0xc18>)
 8000bde:	191b      	adds	r3, r3, r4
 8000be0:	19db      	adds	r3, r3, r7
 8000be2:	2204      	movs	r2, #4
 8000be4:	70da      	strb	r2, [r3, #3]
	mqtt_packt_msg[4]  = 0x4D; // protocol M
 8000be6:	4bb5      	ldr	r3, [pc, #724]	; (8000ebc <main+0xc18>)
 8000be8:	191b      	adds	r3, r3, r4
 8000bea:	19db      	adds	r3, r3, r7
 8000bec:	224d      	movs	r2, #77	; 0x4d
 8000bee:	711a      	strb	r2, [r3, #4]
	mqtt_packt_msg[5]  = 0x51; // protocol Q
 8000bf0:	4bb2      	ldr	r3, [pc, #712]	; (8000ebc <main+0xc18>)
 8000bf2:	191b      	adds	r3, r3, r4
 8000bf4:	19db      	adds	r3, r3, r7
 8000bf6:	2251      	movs	r2, #81	; 0x51
 8000bf8:	715a      	strb	r2, [r3, #5]
	mqtt_packt_msg[6]  = 0x54; // protocol T
 8000bfa:	4bb0      	ldr	r3, [pc, #704]	; (8000ebc <main+0xc18>)
 8000bfc:	191b      	adds	r3, r3, r4
 8000bfe:	19db      	adds	r3, r3, r7
 8000c00:	2254      	movs	r2, #84	; 0x54
 8000c02:	719a      	strb	r2, [r3, #6]
	mqtt_packt_msg[7]  = 0x54; // protocol T
 8000c04:	4bad      	ldr	r3, [pc, #692]	; (8000ebc <main+0xc18>)
 8000c06:	191b      	adds	r3, r3, r4
 8000c08:	19db      	adds	r3, r3, r7
 8000c0a:	2254      	movs	r2, #84	; 0x54
 8000c0c:	71da      	strb	r2, [r3, #7]
	mqtt_packt_msg[8]  = 0x04; // level
 8000c0e:	4bab      	ldr	r3, [pc, #684]	; (8000ebc <main+0xc18>)
 8000c10:	191b      	adds	r3, r3, r4
 8000c12:	19db      	adds	r3, r3, r7
 8000c14:	2204      	movs	r2, #4
 8000c16:	721a      	strb	r2, [r3, #8]
	mqtt_packt_msg[9]  = 0x02; // flag
 8000c18:	4ba8      	ldr	r3, [pc, #672]	; (8000ebc <main+0xc18>)
 8000c1a:	191b      	adds	r3, r3, r4
 8000c1c:	19db      	adds	r3, r3, r7
 8000c1e:	2202      	movs	r2, #2
 8000c20:	725a      	strb	r2, [r3, #9]
	mqtt_packt_msg[10] = 0x00; // KA
 8000c22:	4ba6      	ldr	r3, [pc, #664]	; (8000ebc <main+0xc18>)
 8000c24:	191b      	adds	r3, r3, r4
 8000c26:	19db      	adds	r3, r3, r7
 8000c28:	2200      	movs	r2, #0
 8000c2a:	729a      	strb	r2, [r3, #10]
	mqtt_packt_msg[11] = 0x3C; // KA
 8000c2c:	4ba3      	ldr	r3, [pc, #652]	; (8000ebc <main+0xc18>)
 8000c2e:	191b      	adds	r3, r3, r4
 8000c30:	19db      	adds	r3, r3, r7
 8000c32:	223c      	movs	r2, #60	; 0x3c
 8000c34:	72da      	strb	r2, [r3, #11]
	mqtt_packt_msg[12] = 0x00; // CID length
 8000c36:	4ba1      	ldr	r3, [pc, #644]	; (8000ebc <main+0xc18>)
 8000c38:	191b      	adds	r3, r3, r4
 8000c3a:	19db      	adds	r3, r3, r7
 8000c3c:	2200      	movs	r2, #0
 8000c3e:	731a      	strb	r2, [r3, #12]
	mqtt_packt_msg[13] = 0x07; // CID length
 8000c40:	4b9e      	ldr	r3, [pc, #632]	; (8000ebc <main+0xc18>)
 8000c42:	191b      	adds	r3, r3, r4
 8000c44:	19db      	adds	r3, r3, r7
 8000c46:	2207      	movs	r2, #7
 8000c48:	735a      	strb	r2, [r3, #13]
	mqtt_packt_msg[14] = 0x63; // CID c
 8000c4a:	4b9c      	ldr	r3, [pc, #624]	; (8000ebc <main+0xc18>)
 8000c4c:	191b      	adds	r3, r3, r4
 8000c4e:	19db      	adds	r3, r3, r7
 8000c50:	2263      	movs	r2, #99	; 0x63
 8000c52:	739a      	strb	r2, [r3, #14]
	mqtt_packt_msg[15] = 0x67; // CID g
 8000c54:	4b99      	ldr	r3, [pc, #612]	; (8000ebc <main+0xc18>)
 8000c56:	191b      	adds	r3, r3, r4
 8000c58:	19db      	adds	r3, r3, r7
 8000c5a:	2267      	movs	r2, #103	; 0x67
 8000c5c:	73da      	strb	r2, [r3, #15]
	mqtt_packt_msg[16] = 0x70; // CID p
 8000c5e:	4b97      	ldr	r3, [pc, #604]	; (8000ebc <main+0xc18>)
 8000c60:	191b      	adds	r3, r3, r4
 8000c62:	19db      	adds	r3, r3, r7
 8000c64:	2270      	movs	r2, #112	; 0x70
 8000c66:	741a      	strb	r2, [r3, #16]
	mqtt_packt_msg[17] = 0x73; // CID s
 8000c68:	4b94      	ldr	r3, [pc, #592]	; (8000ebc <main+0xc18>)
 8000c6a:	191b      	adds	r3, r3, r4
 8000c6c:	19db      	adds	r3, r3, r7
 8000c6e:	2273      	movs	r2, #115	; 0x73
 8000c70:	745a      	strb	r2, [r3, #17]
	mqtt_packt_msg[18] = 0x30; // CID 0
 8000c72:	4b92      	ldr	r3, [pc, #584]	; (8000ebc <main+0xc18>)
 8000c74:	191b      	adds	r3, r3, r4
 8000c76:	19db      	adds	r3, r3, r7
 8000c78:	2230      	movs	r2, #48	; 0x30
 8000c7a:	749a      	strb	r2, [r3, #18]
	mqtt_packt_msg[19] = 0x30; // CID 0
 8000c7c:	4b8f      	ldr	r3, [pc, #572]	; (8000ebc <main+0xc18>)
 8000c7e:	191b      	adds	r3, r3, r4
 8000c80:	19db      	adds	r3, r3, r7
 8000c82:	2230      	movs	r2, #48	; 0x30
 8000c84:	74da      	strb	r2, [r3, #19]
	mqtt_packt_msg[20] = 0x31; // CID 1
 8000c86:	4b8d      	ldr	r3, [pc, #564]	; (8000ebc <main+0xc18>)
 8000c88:	191b      	adds	r3, r3, r4
 8000c8a:	19db      	adds	r3, r3, r7
 8000c8c:	2231      	movs	r2, #49	; 0x31
 8000c8e:	751a      	strb	r2, [r3, #20]
	mqtt_packt_msg[21] = 0x30; // mqtt publish packet
 8000c90:	4b8a      	ldr	r3, [pc, #552]	; (8000ebc <main+0xc18>)
 8000c92:	191b      	adds	r3, r3, r4
 8000c94:	19db      	adds	r3, r3, r7
 8000c96:	2230      	movs	r2, #48	; 0x30
 8000c98:	755a      	strb	r2, [r3, #21]
	mqtt_packt_msg[22] = 0x38; // remaining length
 8000c9a:	4b88      	ldr	r3, [pc, #544]	; (8000ebc <main+0xc18>)
 8000c9c:	191b      	adds	r3, r3, r4
 8000c9e:	19db      	adds	r3, r3, r7
 8000ca0:	2238      	movs	r2, #56	; 0x38
 8000ca2:	759a      	strb	r2, [r3, #22]
	mqtt_packt_msg[23] = 0x00; // topic length
 8000ca4:	4b85      	ldr	r3, [pc, #532]	; (8000ebc <main+0xc18>)
 8000ca6:	191b      	adds	r3, r3, r4
 8000ca8:	19db      	adds	r3, r3, r7
 8000caa:	2200      	movs	r2, #0
 8000cac:	75da      	strb	r2, [r3, #23]
	mqtt_packt_msg[24] = 0x0B; // topic length
 8000cae:	4b83      	ldr	r3, [pc, #524]	; (8000ebc <main+0xc18>)
 8000cb0:	191b      	adds	r3, r3, r4
 8000cb2:	19db      	adds	r3, r3, r7
 8000cb4:	220b      	movs	r2, #11
 8000cb6:	761a      	strb	r2, [r3, #24]
	mqtt_packt_msg[25] = 0x63; // topic c
 8000cb8:	4b80      	ldr	r3, [pc, #512]	; (8000ebc <main+0xc18>)
 8000cba:	191b      	adds	r3, r3, r4
 8000cbc:	19db      	adds	r3, r3, r7
 8000cbe:	2263      	movs	r2, #99	; 0x63
 8000cc0:	765a      	strb	r2, [r3, #25]
	mqtt_packt_msg[26] = 0x6F; // topic o
 8000cc2:	4b7e      	ldr	r3, [pc, #504]	; (8000ebc <main+0xc18>)
 8000cc4:	191b      	adds	r3, r3, r4
 8000cc6:	19db      	adds	r3, r3, r7
 8000cc8:	226f      	movs	r2, #111	; 0x6f
 8000cca:	769a      	strb	r2, [r3, #26]
	mqtt_packt_msg[27] = 0x6C; // topic l
 8000ccc:	4b7b      	ldr	r3, [pc, #492]	; (8000ebc <main+0xc18>)
 8000cce:	191b      	adds	r3, r3, r4
 8000cd0:	19db      	adds	r3, r3, r7
 8000cd2:	226c      	movs	r2, #108	; 0x6c
 8000cd4:	76da      	strb	r2, [r3, #27]
	mqtt_packt_msg[28] = 0x65; // topic e
 8000cd6:	4b79      	ldr	r3, [pc, #484]	; (8000ebc <main+0xc18>)
 8000cd8:	191b      	adds	r3, r3, r4
 8000cda:	19db      	adds	r3, r3, r7
 8000cdc:	2265      	movs	r2, #101	; 0x65
 8000cde:	771a      	strb	r2, [r3, #28]
	mqtt_packt_msg[29] = 0x69; // topic i
 8000ce0:	4b76      	ldr	r3, [pc, #472]	; (8000ebc <main+0xc18>)
 8000ce2:	191b      	adds	r3, r3, r4
 8000ce4:	19db      	adds	r3, r3, r7
 8000ce6:	2269      	movs	r2, #105	; 0x69
 8000ce8:	775a      	strb	r2, [r3, #29]
	mqtt_packt_msg[30] = 0x72; // topic r
 8000cea:	4b74      	ldr	r3, [pc, #464]	; (8000ebc <main+0xc18>)
 8000cec:	191b      	adds	r3, r3, r4
 8000cee:	19db      	adds	r3, r3, r7
 8000cf0:	2272      	movs	r2, #114	; 0x72
 8000cf2:	779a      	strb	r2, [r3, #30]
	mqtt_packt_msg[31] = 0x61; // topic a
 8000cf4:	4b71      	ldr	r3, [pc, #452]	; (8000ebc <main+0xc18>)
 8000cf6:	191b      	adds	r3, r3, r4
 8000cf8:	19db      	adds	r3, r3, r7
 8000cfa:	2261      	movs	r2, #97	; 0x61
 8000cfc:	77da      	strb	r2, [r3, #31]
	mqtt_packt_msg[32] = 0x5F; // topic _
 8000cfe:	4b6f      	ldr	r3, [pc, #444]	; (8000ebc <main+0xc18>)
 8000d00:	191b      	adds	r3, r3, r4
 8000d02:	19db      	adds	r3, r3, r7
 8000d04:	2220      	movs	r2, #32
 8000d06:	215f      	movs	r1, #95	; 0x5f
 8000d08:	5499      	strb	r1, [r3, r2]
	mqtt_packt_msg[33] = 0x67; // topic g
 8000d0a:	4b6c      	ldr	r3, [pc, #432]	; (8000ebc <main+0xc18>)
 8000d0c:	191b      	adds	r3, r3, r4
 8000d0e:	19db      	adds	r3, r3, r7
 8000d10:	2221      	movs	r2, #33	; 0x21
 8000d12:	2167      	movs	r1, #103	; 0x67
 8000d14:	5499      	strb	r1, [r3, r2]
	mqtt_packt_msg[34] = 0x70; // topic p
 8000d16:	4b69      	ldr	r3, [pc, #420]	; (8000ebc <main+0xc18>)
 8000d18:	191b      	adds	r3, r3, r4
 8000d1a:	19db      	adds	r3, r3, r7
 8000d1c:	2222      	movs	r2, #34	; 0x22
 8000d1e:	2170      	movs	r1, #112	; 0x70
 8000d20:	5499      	strb	r1, [r3, r2]
	mqtt_packt_msg[35] = 0x73; // topic s
 8000d22:	4b66      	ldr	r3, [pc, #408]	; (8000ebc <main+0xc18>)
 8000d24:	191b      	adds	r3, r3, r4
 8000d26:	19db      	adds	r3, r3, r7
 8000d28:	2223      	movs	r2, #35	; 0x23
 8000d2a:	2173      	movs	r1, #115	; 0x73
 8000d2c:	5499      	strb	r1, [r3, r2]

	unsigned char mqtt_packt_error[50] = {0};
 8000d2e:	4b64      	ldr	r3, [pc, #400]	; (8000ec0 <main+0xc1c>)
 8000d30:	191b      	adds	r3, r3, r4
 8000d32:	19db      	adds	r3, r3, r7
 8000d34:	2200      	movs	r2, #0
 8000d36:	601a      	str	r2, [r3, #0]
 8000d38:	3304      	adds	r3, #4
 8000d3a:	222e      	movs	r2, #46	; 0x2e
 8000d3c:	2100      	movs	r1, #0
 8000d3e:	0018      	movs	r0, r3
 8000d40:	f003 feae 	bl	8004aa0 <memset>

	mqtt_packt_error[0]  = 0x10; // mqtt connect packet
 8000d44:	4b5e      	ldr	r3, [pc, #376]	; (8000ec0 <main+0xc1c>)
 8000d46:	0020      	movs	r0, r4
 8000d48:	181b      	adds	r3, r3, r0
 8000d4a:	19db      	adds	r3, r3, r7
 8000d4c:	2210      	movs	r2, #16
 8000d4e:	701a      	strb	r2, [r3, #0]
	mqtt_packt_error[1]  = 0x13; // remaining length
 8000d50:	4b5b      	ldr	r3, [pc, #364]	; (8000ec0 <main+0xc1c>)
 8000d52:	181b      	adds	r3, r3, r0
 8000d54:	19db      	adds	r3, r3, r7
 8000d56:	2213      	movs	r2, #19
 8000d58:	705a      	strb	r2, [r3, #1]
	mqtt_packt_error[2]  = 0x00; // protocol length
 8000d5a:	4b59      	ldr	r3, [pc, #356]	; (8000ec0 <main+0xc1c>)
 8000d5c:	181b      	adds	r3, r3, r0
 8000d5e:	19db      	adds	r3, r3, r7
 8000d60:	2200      	movs	r2, #0
 8000d62:	709a      	strb	r2, [r3, #2]
	mqtt_packt_error[3]  = 0x04; // protocol length
 8000d64:	4b56      	ldr	r3, [pc, #344]	; (8000ec0 <main+0xc1c>)
 8000d66:	181b      	adds	r3, r3, r0
 8000d68:	19db      	adds	r3, r3, r7
 8000d6a:	2204      	movs	r2, #4
 8000d6c:	70da      	strb	r2, [r3, #3]
	mqtt_packt_error[4]  = 0x4D; // protocol M
 8000d6e:	4b54      	ldr	r3, [pc, #336]	; (8000ec0 <main+0xc1c>)
 8000d70:	181b      	adds	r3, r3, r0
 8000d72:	19db      	adds	r3, r3, r7
 8000d74:	224d      	movs	r2, #77	; 0x4d
 8000d76:	711a      	strb	r2, [r3, #4]
	mqtt_packt_error[5]  = 0x51; // protocol Q
 8000d78:	4b51      	ldr	r3, [pc, #324]	; (8000ec0 <main+0xc1c>)
 8000d7a:	181b      	adds	r3, r3, r0
 8000d7c:	19db      	adds	r3, r3, r7
 8000d7e:	2251      	movs	r2, #81	; 0x51
 8000d80:	715a      	strb	r2, [r3, #5]
	mqtt_packt_error[6]  = 0x54; // protocol T
 8000d82:	4b4f      	ldr	r3, [pc, #316]	; (8000ec0 <main+0xc1c>)
 8000d84:	181b      	adds	r3, r3, r0
 8000d86:	19db      	adds	r3, r3, r7
 8000d88:	2254      	movs	r2, #84	; 0x54
 8000d8a:	719a      	strb	r2, [r3, #6]
	mqtt_packt_error[7]  = 0x54; // protocol T
 8000d8c:	4b4c      	ldr	r3, [pc, #304]	; (8000ec0 <main+0xc1c>)
 8000d8e:	181b      	adds	r3, r3, r0
 8000d90:	19db      	adds	r3, r3, r7
 8000d92:	2254      	movs	r2, #84	; 0x54
 8000d94:	71da      	strb	r2, [r3, #7]
	mqtt_packt_error[8]  = 0x04; // level
 8000d96:	4b4a      	ldr	r3, [pc, #296]	; (8000ec0 <main+0xc1c>)
 8000d98:	181b      	adds	r3, r3, r0
 8000d9a:	19db      	adds	r3, r3, r7
 8000d9c:	2204      	movs	r2, #4
 8000d9e:	721a      	strb	r2, [r3, #8]
	mqtt_packt_error[9]  = 0x02; // flag
 8000da0:	4b47      	ldr	r3, [pc, #284]	; (8000ec0 <main+0xc1c>)
 8000da2:	181b      	adds	r3, r3, r0
 8000da4:	19db      	adds	r3, r3, r7
 8000da6:	2202      	movs	r2, #2
 8000da8:	725a      	strb	r2, [r3, #9]
	mqtt_packt_error[10] = 0x00; // KA
 8000daa:	4b45      	ldr	r3, [pc, #276]	; (8000ec0 <main+0xc1c>)
 8000dac:	181b      	adds	r3, r3, r0
 8000dae:	19db      	adds	r3, r3, r7
 8000db0:	2200      	movs	r2, #0
 8000db2:	729a      	strb	r2, [r3, #10]
	mqtt_packt_error[11] = 0x3C; // KA
 8000db4:	4b42      	ldr	r3, [pc, #264]	; (8000ec0 <main+0xc1c>)
 8000db6:	181b      	adds	r3, r3, r0
 8000db8:	19db      	adds	r3, r3, r7
 8000dba:	223c      	movs	r2, #60	; 0x3c
 8000dbc:	72da      	strb	r2, [r3, #11]
	mqtt_packt_error[12] = 0x00; // CID length
 8000dbe:	4b40      	ldr	r3, [pc, #256]	; (8000ec0 <main+0xc1c>)
 8000dc0:	181b      	adds	r3, r3, r0
 8000dc2:	19db      	adds	r3, r3, r7
 8000dc4:	2200      	movs	r2, #0
 8000dc6:	731a      	strb	r2, [r3, #12]
	mqtt_packt_error[13] = 0x07; // CID length
 8000dc8:	4b3d      	ldr	r3, [pc, #244]	; (8000ec0 <main+0xc1c>)
 8000dca:	181b      	adds	r3, r3, r0
 8000dcc:	19db      	adds	r3, r3, r7
 8000dce:	2207      	movs	r2, #7
 8000dd0:	735a      	strb	r2, [r3, #13]
	mqtt_packt_error[14] = 0x63; // CID c
 8000dd2:	4b3b      	ldr	r3, [pc, #236]	; (8000ec0 <main+0xc1c>)
 8000dd4:	181b      	adds	r3, r3, r0
 8000dd6:	19db      	adds	r3, r3, r7
 8000dd8:	2263      	movs	r2, #99	; 0x63
 8000dda:	739a      	strb	r2, [r3, #14]
	mqtt_packt_error[15] = 0x67; // CID g
 8000ddc:	4b38      	ldr	r3, [pc, #224]	; (8000ec0 <main+0xc1c>)
 8000dde:	181b      	adds	r3, r3, r0
 8000de0:	19db      	adds	r3, r3, r7
 8000de2:	2267      	movs	r2, #103	; 0x67
 8000de4:	73da      	strb	r2, [r3, #15]
	mqtt_packt_error[16] = 0x70; // CID p
 8000de6:	4b36      	ldr	r3, [pc, #216]	; (8000ec0 <main+0xc1c>)
 8000de8:	181b      	adds	r3, r3, r0
 8000dea:	19db      	adds	r3, r3, r7
 8000dec:	2270      	movs	r2, #112	; 0x70
 8000dee:	741a      	strb	r2, [r3, #16]
	mqtt_packt_error[17] = 0x73; // CID s
 8000df0:	4b33      	ldr	r3, [pc, #204]	; (8000ec0 <main+0xc1c>)
 8000df2:	181b      	adds	r3, r3, r0
 8000df4:	19db      	adds	r3, r3, r7
 8000df6:	2273      	movs	r2, #115	; 0x73
 8000df8:	745a      	strb	r2, [r3, #17]
	mqtt_packt_error[18] = 0x30; // CID 0
 8000dfa:	4b31      	ldr	r3, [pc, #196]	; (8000ec0 <main+0xc1c>)
 8000dfc:	181b      	adds	r3, r3, r0
 8000dfe:	19db      	adds	r3, r3, r7
 8000e00:	2230      	movs	r2, #48	; 0x30
 8000e02:	749a      	strb	r2, [r3, #18]
	mqtt_packt_error[19] = 0x30; // CID 0
 8000e04:	4b2e      	ldr	r3, [pc, #184]	; (8000ec0 <main+0xc1c>)
 8000e06:	181b      	adds	r3, r3, r0
 8000e08:	19db      	adds	r3, r3, r7
 8000e0a:	2230      	movs	r2, #48	; 0x30
 8000e0c:	74da      	strb	r2, [r3, #19]
	mqtt_packt_error[20] = 0x31; // CID 1
 8000e0e:	4b2c      	ldr	r3, [pc, #176]	; (8000ec0 <main+0xc1c>)
 8000e10:	181b      	adds	r3, r3, r0
 8000e12:	19db      	adds	r3, r3, r7
 8000e14:	2231      	movs	r2, #49	; 0x31
 8000e16:	751a      	strb	r2, [r3, #20]
	mqtt_packt_error[21] = 0x30; // mqtt publish packet
 8000e18:	4b29      	ldr	r3, [pc, #164]	; (8000ec0 <main+0xc1c>)
 8000e1a:	181b      	adds	r3, r3, r0
 8000e1c:	19db      	adds	r3, r3, r7
 8000e1e:	2230      	movs	r2, #48	; 0x30
 8000e20:	755a      	strb	r2, [r3, #21]
	mqtt_packt_error[22] = 0x0F; // remaining length
 8000e22:	4b27      	ldr	r3, [pc, #156]	; (8000ec0 <main+0xc1c>)
 8000e24:	181b      	adds	r3, r3, r0
 8000e26:	19db      	adds	r3, r3, r7
 8000e28:	220f      	movs	r2, #15
 8000e2a:	759a      	strb	r2, [r3, #22]
	mqtt_packt_error[23] = 0x00; // topic length
 8000e2c:	4b24      	ldr	r3, [pc, #144]	; (8000ec0 <main+0xc1c>)
 8000e2e:	181b      	adds	r3, r3, r0
 8000e30:	19db      	adds	r3, r3, r7
 8000e32:	2200      	movs	r2, #0
 8000e34:	75da      	strb	r2, [r3, #23]
	mqtt_packt_error[24] = 0x0B; // topic length
 8000e36:	4b22      	ldr	r3, [pc, #136]	; (8000ec0 <main+0xc1c>)
 8000e38:	181b      	adds	r3, r3, r0
 8000e3a:	19db      	adds	r3, r3, r7
 8000e3c:	220b      	movs	r2, #11
 8000e3e:	761a      	strb	r2, [r3, #24]
	mqtt_packt_error[25] = 0x63; // topic c
 8000e40:	4b1f      	ldr	r3, [pc, #124]	; (8000ec0 <main+0xc1c>)
 8000e42:	181b      	adds	r3, r3, r0
 8000e44:	19db      	adds	r3, r3, r7
 8000e46:	2263      	movs	r2, #99	; 0x63
 8000e48:	765a      	strb	r2, [r3, #25]
	mqtt_packt_error[26] = 0x6F; // topic o
 8000e4a:	4b1d      	ldr	r3, [pc, #116]	; (8000ec0 <main+0xc1c>)
 8000e4c:	181b      	adds	r3, r3, r0
 8000e4e:	19db      	adds	r3, r3, r7
 8000e50:	226f      	movs	r2, #111	; 0x6f
 8000e52:	769a      	strb	r2, [r3, #26]
	mqtt_packt_error[27] = 0x6C; // topic l
 8000e54:	4b1a      	ldr	r3, [pc, #104]	; (8000ec0 <main+0xc1c>)
 8000e56:	181b      	adds	r3, r3, r0
 8000e58:	19db      	adds	r3, r3, r7
 8000e5a:	226c      	movs	r2, #108	; 0x6c
 8000e5c:	76da      	strb	r2, [r3, #27]
	mqtt_packt_error[28] = 0x65; // topic e
 8000e5e:	4b18      	ldr	r3, [pc, #96]	; (8000ec0 <main+0xc1c>)
 8000e60:	181b      	adds	r3, r3, r0
 8000e62:	19db      	adds	r3, r3, r7
 8000e64:	2265      	movs	r2, #101	; 0x65
 8000e66:	771a      	strb	r2, [r3, #28]
	mqtt_packt_error[29] = 0x69; // topic i
 8000e68:	4b15      	ldr	r3, [pc, #84]	; (8000ec0 <main+0xc1c>)
 8000e6a:	181b      	adds	r3, r3, r0
 8000e6c:	19db      	adds	r3, r3, r7
 8000e6e:	2269      	movs	r2, #105	; 0x69
 8000e70:	775a      	strb	r2, [r3, #29]
	mqtt_packt_error[30] = 0x72; // topic r
 8000e72:	4b13      	ldr	r3, [pc, #76]	; (8000ec0 <main+0xc1c>)
 8000e74:	181b      	adds	r3, r3, r0
 8000e76:	19db      	adds	r3, r3, r7
 8000e78:	2272      	movs	r2, #114	; 0x72
 8000e7a:	779a      	strb	r2, [r3, #30]
	mqtt_packt_error[31] = 0x61; // topic a
 8000e7c:	4b10      	ldr	r3, [pc, #64]	; (8000ec0 <main+0xc1c>)
 8000e7e:	181b      	adds	r3, r3, r0
 8000e80:	19db      	adds	r3, r3, r7
 8000e82:	2261      	movs	r2, #97	; 0x61
 8000e84:	77da      	strb	r2, [r3, #31]
	mqtt_packt_error[32] = 0x5F; // topic _
 8000e86:	4b0e      	ldr	r3, [pc, #56]	; (8000ec0 <main+0xc1c>)
 8000e88:	181b      	adds	r3, r3, r0
 8000e8a:	19db      	adds	r3, r3, r7
 8000e8c:	2220      	movs	r2, #32
 8000e8e:	215f      	movs	r1, #95	; 0x5f
 8000e90:	5499      	strb	r1, [r3, r2]
	mqtt_packt_error[33] = 0x67; // topic g
 8000e92:	4b0b      	ldr	r3, [pc, #44]	; (8000ec0 <main+0xc1c>)
 8000e94:	181b      	adds	r3, r3, r0
 8000e96:	19db      	adds	r3, r3, r7
 8000e98:	2221      	movs	r2, #33	; 0x21
 8000e9a:	2167      	movs	r1, #103	; 0x67
 8000e9c:	5499      	strb	r1, [r3, r2]
	mqtt_packt_error[34] = 0x70; // topic p
 8000e9e:	4b08      	ldr	r3, [pc, #32]	; (8000ec0 <main+0xc1c>)
 8000ea0:	181b      	adds	r3, r3, r0
 8000ea2:	19db      	adds	r3, r3, r7
 8000ea4:	2222      	movs	r2, #34	; 0x22
 8000ea6:	2170      	movs	r1, #112	; 0x70
 8000ea8:	5499      	strb	r1, [r3, r2]
	mqtt_packt_error[35] = 0x73; // topic s
 8000eaa:	4b05      	ldr	r3, [pc, #20]	; (8000ec0 <main+0xc1c>)
 8000eac:	181b      	adds	r3, r3, r0
 8000eae:	19db      	adds	r3, r3, r7
 8000eb0:	2223      	movs	r2, #35	; 0x23
 8000eb2:	e007      	b.n	8000ec4 <main+0xc20>
 8000eb4:	fffffce8 	.word	0xfffffce8
 8000eb8:	000001ff 	.word	0x000001ff
 8000ebc:	fffffc84 	.word	0xfffffc84
 8000ec0:	fffffc50 	.word	0xfffffc50
 8000ec4:	2173      	movs	r1, #115	; 0x73
 8000ec6:	5499      	strb	r1, [r3, r2]
  /* USER CODE END 1 */

  /* MCU Configuration--------------------------------------------------------*/

  /* Reset of all peripherals, Initializes the Flash interface and the Systick. */
  HAL_Init();
 8000ec8:	f001 fa18 	bl	80022fc <HAL_Init>
  /* USER CODE BEGIN Init */

  /* USER CODE END Init */

  /* Configure the system clock */
  SystemClock_Config();
 8000ecc:	f000 ff82 	bl	8001dd4 <SystemClock_Config>
  /* USER CODE BEGIN SysInit */

  /* USER CODE END SysInit */

  /* Initialize all configured peripherals */
  MX_GPIO_Init();
 8000ed0:	f001 f856 	bl	8001f80 <MX_GPIO_Init>
  MX_USART1_UART_Init();
 8000ed4:	f000 ffd6 	bl	8001e84 <MX_USART1_UART_Init>
  MX_DMA_Init();
 8000ed8:	f001 f834 	bl	8001f44 <MX_DMA_Init>
  MX_USART2_UART_Init();
 8000edc:	f001 f802 	bl	8001ee4 <MX_USART2_UART_Init>
  /* USER CODE BEGIN 2 */
  HAL_UART_Receive_IT(&huart1, data_in_uart1, 400);
 8000ee0:	23c8      	movs	r3, #200	; 0xc8
 8000ee2:	005a      	lsls	r2, r3, #1
 8000ee4:	49dc      	ldr	r1, [pc, #880]	; (8001258 <main+0xfb4>)
 8000ee6:	4bdd      	ldr	r3, [pc, #884]	; (800125c <main+0xfb8>)
 8000ee8:	0018      	movs	r0, r3
 8000eea:	f002 fcd0 	bl	800388e <HAL_UART_Receive_IT>
  HAL_UART_Receive_IT(&huart2, data_in_uart2, 60);
 8000eee:	49dc      	ldr	r1, [pc, #880]	; (8001260 <main+0xfbc>)
 8000ef0:	4bdc      	ldr	r3, [pc, #880]	; (8001264 <main+0xfc0>)
 8000ef2:	223c      	movs	r2, #60	; 0x3c
 8000ef4:	0018      	movs	r0, r3
 8000ef6:	f002 fcca 	bl	800388e <HAL_UART_Receive_IT>

  HAL_GPIO_WritePin(RESET_SIM800l_GPIO_Port, RESET_SIM800l_Pin, GPIO_PIN_RESET);
 8000efa:	2380      	movs	r3, #128	; 0x80
 8000efc:	0219      	lsls	r1, r3, #8
 8000efe:	2390      	movs	r3, #144	; 0x90
 8000f00:	05db      	lsls	r3, r3, #23
 8000f02:	2200      	movs	r2, #0
 8000f04:	0018      	movs	r0, r3
 8000f06:	f001 fe53 	bl	8002bb0 <HAL_GPIO_WritePin>
  HAL_Delay(1000);
 8000f0a:	23fa      	movs	r3, #250	; 0xfa
 8000f0c:	009b      	lsls	r3, r3, #2
 8000f0e:	0018      	movs	r0, r3
 8000f10:	f001 fa58 	bl	80023c4 <HAL_Delay>
  HAL_GPIO_WritePin(RESET_SIM800l_GPIO_Port, RESET_SIM800l_Pin, GPIO_PIN_SET);
 8000f14:	2380      	movs	r3, #128	; 0x80
 8000f16:	0219      	lsls	r1, r3, #8
 8000f18:	2390      	movs	r3, #144	; 0x90
 8000f1a:	05db      	lsls	r3, r3, #23
 8000f1c:	2201      	movs	r2, #1
 8000f1e:	0018      	movs	r0, r3
 8000f20:	f001 fe46 	bl	8002bb0 <HAL_GPIO_WritePin>
  HAL_Delay(30000);
 8000f24:	4bd0      	ldr	r3, [pc, #832]	; (8001268 <main+0xfc4>)
 8000f26:	0018      	movs	r0, r3
 8000f28:	f001 fa4c 	bl	80023c4 <HAL_Delay>

  //INCIO VERIFICAO DE CONECTIVIDADE GPRS
  while (ctrl_creg_loop == false)
 8000f2c:	e08f      	b.n	800104e <main+0xdaa>
  {
	  HAL_UART_Transmit(&huart2, (unsigned char *)at_command[AT_CREG], strlen((const char *)at_command[AT_CREG]), 100);
 8000f2e:	2498      	movs	r4, #152	; 0x98
 8000f30:	193b      	adds	r3, r7, r4
 8000f32:	3396      	adds	r3, #150	; 0x96
 8000f34:	0018      	movs	r0, r3
 8000f36:	f7ff f8e7 	bl	8000108 <strlen>
 8000f3a:	0003      	movs	r3, r0
 8000f3c:	b29a      	uxth	r2, r3
 8000f3e:	193b      	adds	r3, r7, r4
 8000f40:	3396      	adds	r3, #150	; 0x96
 8000f42:	0019      	movs	r1, r3
 8000f44:	48c7      	ldr	r0, [pc, #796]	; (8001264 <main+0xfc0>)
 8000f46:	2364      	movs	r3, #100	; 0x64
 8000f48:	f002 fbf8 	bl	800373c <HAL_UART_Transmit>
	  HAL_Delay(500);
 8000f4c:	23fa      	movs	r3, #250	; 0xfa
 8000f4e:	005b      	lsls	r3, r3, #1
 8000f50:	0018      	movs	r0, r3
 8000f52:	f001 fa37 	bl	80023c4 <HAL_Delay>
	  if (ctrl_uart2 == true)
 8000f56:	4bc5      	ldr	r3, [pc, #788]	; (800126c <main+0xfc8>)
 8000f58:	781b      	ldrb	r3, [r3, #0]
 8000f5a:	2b01      	cmp	r3, #1
 8000f5c:	d158      	bne.n	8001010 <main+0xd6c>
	  {
		  for (uint8_t a = 0; a<=60; a++)
 8000f5e:	4bc4      	ldr	r3, [pc, #784]	; (8001270 <main+0xfcc>)
 8000f60:	18fb      	adds	r3, r7, r3
 8000f62:	2200      	movs	r2, #0
 8000f64:	701a      	strb	r2, [r3, #0]
 8000f66:	e04e      	b.n	8001006 <main+0xd62>
		  {
			  if ((data_in_uart2[a] == 0x2B) && (data_in_uart2[a+1] == 0x43) && (data_in_uart2[a+2] == 0x52) && (data_in_uart2[a+3] == 0x45)
 8000f68:	49c1      	ldr	r1, [pc, #772]	; (8001270 <main+0xfcc>)
 8000f6a:	187b      	adds	r3, r7, r1
 8000f6c:	781b      	ldrb	r3, [r3, #0]
 8000f6e:	4abc      	ldr	r2, [pc, #752]	; (8001260 <main+0xfbc>)
 8000f70:	5cd3      	ldrb	r3, [r2, r3]
 8000f72:	2b2b      	cmp	r3, #43	; 0x2b
 8000f74:	d141      	bne.n	8000ffa <main+0xd56>
 8000f76:	187b      	adds	r3, r7, r1
 8000f78:	781b      	ldrb	r3, [r3, #0]
 8000f7a:	3301      	adds	r3, #1
 8000f7c:	4ab8      	ldr	r2, [pc, #736]	; (8001260 <main+0xfbc>)
 8000f7e:	5cd3      	ldrb	r3, [r2, r3]
 8000f80:	2b43      	cmp	r3, #67	; 0x43
 8000f82:	d13a      	bne.n	8000ffa <main+0xd56>
 8000f84:	187b      	adds	r3, r7, r1
 8000f86:	781b      	ldrb	r3, [r3, #0]
 8000f88:	3302      	adds	r3, #2
 8000f8a:	4ab5      	ldr	r2, [pc, #724]	; (8001260 <main+0xfbc>)
 8000f8c:	5cd3      	ldrb	r3, [r2, r3]
 8000f8e:	2b52      	cmp	r3, #82	; 0x52
 8000f90:	d133      	bne.n	8000ffa <main+0xd56>
 8000f92:	187b      	adds	r3, r7, r1
 8000f94:	781b      	ldrb	r3, [r3, #0]
 8000f96:	3303      	adds	r3, #3
 8000f98:	4ab1      	ldr	r2, [pc, #708]	; (8001260 <main+0xfbc>)
 8000f9a:	5cd3      	ldrb	r3, [r2, r3]
 8000f9c:	2b45      	cmp	r3, #69	; 0x45
 8000f9e:	d12c      	bne.n	8000ffa <main+0xd56>
					  && (data_in_uart2[a+4] == 0x47) && (data_in_uart2[a+5] == 0x3A))//filtrar dados +CREG:
 8000fa0:	187b      	adds	r3, r7, r1
 8000fa2:	781b      	ldrb	r3, [r3, #0]
 8000fa4:	3304      	adds	r3, #4
 8000fa6:	4aae      	ldr	r2, [pc, #696]	; (8001260 <main+0xfbc>)
 8000fa8:	5cd3      	ldrb	r3, [r2, r3]
 8000faa:	2b47      	cmp	r3, #71	; 0x47
 8000fac:	d125      	bne.n	8000ffa <main+0xd56>
 8000fae:	187b      	adds	r3, r7, r1
 8000fb0:	781b      	ldrb	r3, [r3, #0]
 8000fb2:	3305      	adds	r3, #5
 8000fb4:	4aaa      	ldr	r2, [pc, #680]	; (8001260 <main+0xfbc>)
 8000fb6:	5cd3      	ldrb	r3, [r2, r3]
 8000fb8:	2b3a      	cmp	r3, #58	; 0x3a
 8000fba:	d11e      	bne.n	8000ffa <main+0xd56>
  			  {
				  for(uint8_t b = 0; b<=10; b++)
 8000fbc:	4bad      	ldr	r3, [pc, #692]	; (8001274 <main+0xfd0>)
 8000fbe:	18fb      	adds	r3, r7, r3
 8000fc0:	2200      	movs	r2, #0
 8000fc2:	701a      	strb	r2, [r3, #0]
 8000fc4:	e013      	b.n	8000fee <main+0xd4a>
				  {
					  data_filter_uart2[b] = data_in_uart2[a+b];
 8000fc6:	4baa      	ldr	r3, [pc, #680]	; (8001270 <main+0xfcc>)
 8000fc8:	18fb      	adds	r3, r7, r3
 8000fca:	781a      	ldrb	r2, [r3, #0]
 8000fcc:	48a9      	ldr	r0, [pc, #676]	; (8001274 <main+0xfd0>)
 8000fce:	183b      	adds	r3, r7, r0
 8000fd0:	781b      	ldrb	r3, [r3, #0]
 8000fd2:	18d2      	adds	r2, r2, r3
 8000fd4:	183b      	adds	r3, r7, r0
 8000fd6:	781b      	ldrb	r3, [r3, #0]
 8000fd8:	49a1      	ldr	r1, [pc, #644]	; (8001260 <main+0xfbc>)
 8000fda:	5c89      	ldrb	r1, [r1, r2]
 8000fdc:	22b7      	movs	r2, #183	; 0xb7
 8000fde:	0092      	lsls	r2, r2, #2
 8000fe0:	18ba      	adds	r2, r7, r2
 8000fe2:	54d1      	strb	r1, [r2, r3]
				  for(uint8_t b = 0; b<=10; b++)
 8000fe4:	183b      	adds	r3, r7, r0
 8000fe6:	781a      	ldrb	r2, [r3, #0]
 8000fe8:	183b      	adds	r3, r7, r0
 8000fea:	3201      	adds	r2, #1
 8000fec:	701a      	strb	r2, [r3, #0]
 8000fee:	4ba1      	ldr	r3, [pc, #644]	; (8001274 <main+0xfd0>)
 8000ff0:	18fb      	adds	r3, r7, r3
 8000ff2:	781b      	ldrb	r3, [r3, #0]
 8000ff4:	2b0a      	cmp	r3, #10
 8000ff6:	d9e6      	bls.n	8000fc6 <main+0xd22>
				  }
				  break;
 8000ff8:	e00a      	b.n	8001010 <main+0xd6c>
		  for (uint8_t a = 0; a<=60; a++)
 8000ffa:	499d      	ldr	r1, [pc, #628]	; (8001270 <main+0xfcc>)
 8000ffc:	187b      	adds	r3, r7, r1
 8000ffe:	781a      	ldrb	r2, [r3, #0]
 8001000:	187b      	adds	r3, r7, r1
 8001002:	3201      	adds	r2, #1
 8001004:	701a      	strb	r2, [r3, #0]
 8001006:	4b9a      	ldr	r3, [pc, #616]	; (8001270 <main+0xfcc>)
 8001008:	18fb      	adds	r3, r7, r3
 800100a:	781b      	ldrb	r3, [r3, #0]
 800100c:	2b3c      	cmp	r3, #60	; 0x3c
 800100e:	d9ab      	bls.n	8000f68 <main+0xcc4>
  			  }
		  }
	  }
	  if ((data_filter_uart2[9] == 0x31) || (data_filter_uart2[9] == 0x35))
 8001010:	22b7      	movs	r2, #183	; 0xb7
 8001012:	0092      	lsls	r2, r2, #2
 8001014:	18bb      	adds	r3, r7, r2
 8001016:	7a5b      	ldrb	r3, [r3, #9]
 8001018:	2b31      	cmp	r3, #49	; 0x31
 800101a:	d003      	beq.n	8001024 <main+0xd80>
 800101c:	18bb      	adds	r3, r7, r2
 800101e:	7a5b      	ldrb	r3, [r3, #9]
 8001020:	2b35      	cmp	r3, #53	; 0x35
 8001022:	d10c      	bne.n	800103e <main+0xd9a>
	  {
		  HAL_UART_Transmit(&huart1, (unsigned char *)data_filter_uart2, 10, 100);
 8001024:	23b7      	movs	r3, #183	; 0xb7
 8001026:	009b      	lsls	r3, r3, #2
 8001028:	18f9      	adds	r1, r7, r3
 800102a:	488c      	ldr	r0, [pc, #560]	; (800125c <main+0xfb8>)
 800102c:	2364      	movs	r3, #100	; 0x64
 800102e:	220a      	movs	r2, #10
 8001030:	f002 fb84 	bl	800373c <HAL_UART_Transmit>
		  ctrl_creg_loop = true;
 8001034:	4b90      	ldr	r3, [pc, #576]	; (8001278 <main+0xfd4>)
 8001036:	18fb      	adds	r3, r7, r3
 8001038:	2201      	movs	r2, #1
 800103a:	701a      	strb	r2, [r3, #0]
 800103c:	e007      	b.n	800104e <main+0xdaa>
	  }
	  else
	  {
		  HAL_UART_Transmit(&huart1, (unsigned char *)error_msg_NC, 10, 100);
 800103e:	23b1      	movs	r3, #177	; 0xb1
 8001040:	009b      	lsls	r3, r3, #2
 8001042:	18f9      	adds	r1, r7, r3
 8001044:	4885      	ldr	r0, [pc, #532]	; (800125c <main+0xfb8>)
 8001046:	2364      	movs	r3, #100	; 0x64
 8001048:	220a      	movs	r2, #10
 800104a:	f002 fb77 	bl	800373c <HAL_UART_Transmit>
  while (ctrl_creg_loop == false)
 800104e:	4a8a      	ldr	r2, [pc, #552]	; (8001278 <main+0xfd4>)
 8001050:	18bb      	adds	r3, r7, r2
 8001052:	781b      	ldrb	r3, [r3, #0]
 8001054:	2b00      	cmp	r3, #0
 8001056:	d100      	bne.n	800105a <main+0xdb6>
 8001058:	e769      	b.n	8000f2e <main+0xc8a>
	  }
  }
  ctrl_creg_loop = false;
 800105a:	18bb      	adds	r3, r7, r2
 800105c:	2200      	movs	r2, #0
 800105e:	701a      	strb	r2, [r3, #0]
  //FIM VERIFICAO DE CONECTIVIDADE GPRS

  HAL_UART_Transmit(&huart2, (unsigned char *)at_command[AT], strlen((const char *)at_command[AT]), 100);
 8001060:	2498      	movs	r4, #152	; 0x98
 8001062:	193b      	adds	r3, r7, r4
 8001064:	0018      	movs	r0, r3
 8001066:	f7ff f84f 	bl	8000108 <strlen>
 800106a:	0003      	movs	r3, r0
 800106c:	b29a      	uxth	r2, r3
 800106e:	1939      	adds	r1, r7, r4
 8001070:	487c      	ldr	r0, [pc, #496]	; (8001264 <main+0xfc0>)
 8001072:	2364      	movs	r3, #100	; 0x64
 8001074:	f002 fb62 	bl	800373c <HAL_UART_Transmit>
  HAL_Delay(500);
 8001078:	23fa      	movs	r3, #250	; 0xfa
 800107a:	005b      	lsls	r3, r3, #1
 800107c:	0018      	movs	r0, r3
 800107e:	f001 f9a1 	bl	80023c4 <HAL_Delay>
  HAL_UART_Transmit(&huart2, (unsigned char *)at_command[AT_CFUN], strlen((const char *)at_command[AT_CFUN]), 100);
 8001082:	193b      	adds	r3, r7, r4
 8001084:	3332      	adds	r3, #50	; 0x32
 8001086:	0018      	movs	r0, r3
 8001088:	f7ff f83e 	bl	8000108 <strlen>
 800108c:	0003      	movs	r3, r0
 800108e:	b29a      	uxth	r2, r3
 8001090:	193b      	adds	r3, r7, r4
 8001092:	3332      	adds	r3, #50	; 0x32
 8001094:	0019      	movs	r1, r3
 8001096:	4873      	ldr	r0, [pc, #460]	; (8001264 <main+0xfc0>)
 8001098:	2364      	movs	r3, #100	; 0x64
 800109a:	f002 fb4f 	bl	800373c <HAL_UART_Transmit>
  HAL_Delay(500);
 800109e:	23fa      	movs	r3, #250	; 0xfa
 80010a0:	005b      	lsls	r3, r3, #1
 80010a2:	0018      	movs	r0, r3
 80010a4:	f001 f98e 	bl	80023c4 <HAL_Delay>
  HAL_UART_Transmit(&huart2, (unsigned char *)at_command[AT_CPIN], strlen((const char *)at_command[AT_CPIN]), 100);
 80010a8:	193b      	adds	r3, r7, r4
 80010aa:	3364      	adds	r3, #100	; 0x64
 80010ac:	0018      	movs	r0, r3
 80010ae:	f7ff f82b 	bl	8000108 <strlen>
 80010b2:	0003      	movs	r3, r0
 80010b4:	b29a      	uxth	r2, r3
 80010b6:	193b      	adds	r3, r7, r4
 80010b8:	3364      	adds	r3, #100	; 0x64
 80010ba:	0019      	movs	r1, r3
 80010bc:	4869      	ldr	r0, [pc, #420]	; (8001264 <main+0xfc0>)
 80010be:	2364      	movs	r3, #100	; 0x64
 80010c0:	f002 fb3c 	bl	800373c <HAL_UART_Transmit>
  HAL_Delay(500);
 80010c4:	23fa      	movs	r3, #250	; 0xfa
 80010c6:	005b      	lsls	r3, r3, #1
 80010c8:	0018      	movs	r0, r3
 80010ca:	f001 f97b 	bl	80023c4 <HAL_Delay>
  HAL_UART_Transmit(&huart2, (unsigned char *)at_command[AT_CREG], strlen((const char *)at_command[AT_CREG]), 100);
 80010ce:	193b      	adds	r3, r7, r4
 80010d0:	3396      	adds	r3, #150	; 0x96
 80010d2:	0018      	movs	r0, r3
 80010d4:	f7ff f818 	bl	8000108 <strlen>
 80010d8:	0003      	movs	r3, r0
 80010da:	b29a      	uxth	r2, r3
 80010dc:	193b      	adds	r3, r7, r4
 80010de:	3396      	adds	r3, #150	; 0x96
 80010e0:	0019      	movs	r1, r3
 80010e2:	4860      	ldr	r0, [pc, #384]	; (8001264 <main+0xfc0>)
 80010e4:	2364      	movs	r3, #100	; 0x64
 80010e6:	f002 fb29 	bl	800373c <HAL_UART_Transmit>
  HAL_Delay(500);
 80010ea:	23fa      	movs	r3, #250	; 0xfa
 80010ec:	005b      	lsls	r3, r3, #1
 80010ee:	0018      	movs	r0, r3
 80010f0:	f001 f968 	bl	80023c4 <HAL_Delay>
  HAL_UART_Transmit(&huart2, (unsigned char *)at_command[AT_CSQ], strlen((const char *)at_command[AT_CSQ]), 100);
 80010f4:	193b      	adds	r3, r7, r4
 80010f6:	33c8      	adds	r3, #200	; 0xc8
 80010f8:	0018      	movs	r0, r3
 80010fa:	f7ff f805 	bl	8000108 <strlen>
 80010fe:	0003      	movs	r3, r0
 8001100:	b29a      	uxth	r2, r3
 8001102:	193b      	adds	r3, r7, r4
 8001104:	33c8      	adds	r3, #200	; 0xc8
 8001106:	0019      	movs	r1, r3
 8001108:	4856      	ldr	r0, [pc, #344]	; (8001264 <main+0xfc0>)
 800110a:	2364      	movs	r3, #100	; 0x64
 800110c:	f002 fb16 	bl	800373c <HAL_UART_Transmit>
  HAL_Delay(500);
 8001110:	23fa      	movs	r3, #250	; 0xfa
 8001112:	005b      	lsls	r3, r3, #1
 8001114:	0018      	movs	r0, r3
 8001116:	f001 f955 	bl	80023c4 <HAL_Delay>
  HAL_UART_Transmit(&huart2, (unsigned char *)at_command[AT_CSTT], strlen((const char *)at_command[AT_CSTT]), 100);
 800111a:	193b      	adds	r3, r7, r4
 800111c:	33fa      	adds	r3, #250	; 0xfa
 800111e:	0018      	movs	r0, r3
 8001120:	f7fe fff2 	bl	8000108 <strlen>
 8001124:	0003      	movs	r3, r0
 8001126:	b29a      	uxth	r2, r3
 8001128:	193b      	adds	r3, r7, r4
 800112a:	33fa      	adds	r3, #250	; 0xfa
 800112c:	0019      	movs	r1, r3
 800112e:	484d      	ldr	r0, [pc, #308]	; (8001264 <main+0xfc0>)
 8001130:	2364      	movs	r3, #100	; 0x64
 8001132:	f002 fb03 	bl	800373c <HAL_UART_Transmit>
  HAL_Delay(500);
 8001136:	23fa      	movs	r3, #250	; 0xfa
 8001138:	005b      	lsls	r3, r3, #1
 800113a:	0018      	movs	r0, r3
 800113c:	f001 f942 	bl	80023c4 <HAL_Delay>
  HAL_UART_Transmit(&huart2, (unsigned char *)at_command[AT_CIICR], strlen((const char *)at_command[AT_CIICR]), 100);
 8001140:	193b      	adds	r3, r7, r4
 8001142:	332d      	adds	r3, #45	; 0x2d
 8001144:	33ff      	adds	r3, #255	; 0xff
 8001146:	0018      	movs	r0, r3
 8001148:	f7fe ffde 	bl	8000108 <strlen>
 800114c:	0003      	movs	r3, r0
 800114e:	b29a      	uxth	r2, r3
 8001150:	193b      	adds	r3, r7, r4
 8001152:	332d      	adds	r3, #45	; 0x2d
 8001154:	33ff      	adds	r3, #255	; 0xff
 8001156:	0019      	movs	r1, r3
 8001158:	4842      	ldr	r0, [pc, #264]	; (8001264 <main+0xfc0>)
 800115a:	2364      	movs	r3, #100	; 0x64
 800115c:	f002 faee 	bl	800373c <HAL_UART_Transmit>
  HAL_Delay(5000);
 8001160:	4b46      	ldr	r3, [pc, #280]	; (800127c <main+0xfd8>)
 8001162:	0018      	movs	r0, r3
 8001164:	f001 f92e 	bl	80023c4 <HAL_Delay>
  HAL_UART_Transmit(&huart2, (unsigned char *)at_command[AT_CIFSR], strlen((const char *)at_command[AT_CIFSR]), 100);
 8001168:	193b      	adds	r3, r7, r4
 800116a:	335f      	adds	r3, #95	; 0x5f
 800116c:	33ff      	adds	r3, #255	; 0xff
 800116e:	0018      	movs	r0, r3
 8001170:	f7fe ffca 	bl	8000108 <strlen>
 8001174:	0003      	movs	r3, r0
 8001176:	b29a      	uxth	r2, r3
 8001178:	193b      	adds	r3, r7, r4
 800117a:	335f      	adds	r3, #95	; 0x5f
 800117c:	33ff      	adds	r3, #255	; 0xff
 800117e:	0019      	movs	r1, r3
 8001180:	4838      	ldr	r0, [pc, #224]	; (8001264 <main+0xfc0>)
 8001182:	2364      	movs	r3, #100	; 0x64
 8001184:	f002 fada 	bl	800373c <HAL_UART_Transmit>
  HAL_Delay(5000);
 8001188:	4b3c      	ldr	r3, [pc, #240]	; (800127c <main+0xfd8>)
 800118a:	0018      	movs	r0, r3
 800118c:	f001 f91a 	bl	80023c4 <HAL_Delay>

  /* Infinite loop */
  /* USER CODE BEGIN WHILE */
  while (1)
  {
	  if (ctrl_uart1 == true)
 8001190:	4b3b      	ldr	r3, [pc, #236]	; (8001280 <main+0xfdc>)
 8001192:	781b      	ldrb	r3, [r3, #0]
 8001194:	2b01      	cmp	r3, #1
 8001196:	d1fb      	bne.n	8001190 <main+0xeec>
	  {
		  for (uint8_t i = 0; i<=400; i++)
 8001198:	23eb      	movs	r3, #235	; 0xeb
 800119a:	009b      	lsls	r3, r3, #2
 800119c:	18fb      	adds	r3, r7, r3
 800119e:	2200      	movs	r2, #0
 80011a0:	701a      	strb	r2, [r3, #0]
		  	{
		  		if ((data_in_uart1[i] == 0x24) && (data_in_uart1[i+1] == 0x47) && (data_in_uart1[i+2] == 0x50) && (data_in_uart1[i+3] == 0x47)
 80011a2:	21eb      	movs	r1, #235	; 0xeb
 80011a4:	0089      	lsls	r1, r1, #2
 80011a6:	187b      	adds	r3, r7, r1
 80011a8:	781b      	ldrb	r3, [r3, #0]
 80011aa:	4a2b      	ldr	r2, [pc, #172]	; (8001258 <main+0xfb4>)
 80011ac:	5cd3      	ldrb	r3, [r2, r3]
 80011ae:	2b24      	cmp	r3, #36	; 0x24
 80011b0:	d142      	bne.n	8001238 <main+0xf94>
 80011b2:	187b      	adds	r3, r7, r1
 80011b4:	781b      	ldrb	r3, [r3, #0]
 80011b6:	3301      	adds	r3, #1
 80011b8:	4a27      	ldr	r2, [pc, #156]	; (8001258 <main+0xfb4>)
 80011ba:	5cd3      	ldrb	r3, [r2, r3]
 80011bc:	2b47      	cmp	r3, #71	; 0x47
 80011be:	d13b      	bne.n	8001238 <main+0xf94>
 80011c0:	187b      	adds	r3, r7, r1
 80011c2:	781b      	ldrb	r3, [r3, #0]
 80011c4:	3302      	adds	r3, #2
 80011c6:	4a24      	ldr	r2, [pc, #144]	; (8001258 <main+0xfb4>)
 80011c8:	5cd3      	ldrb	r3, [r2, r3]
 80011ca:	2b50      	cmp	r3, #80	; 0x50
 80011cc:	d134      	bne.n	8001238 <main+0xf94>
 80011ce:	187b      	adds	r3, r7, r1
 80011d0:	781b      	ldrb	r3, [r3, #0]
 80011d2:	3303      	adds	r3, #3
 80011d4:	4a20      	ldr	r2, [pc, #128]	; (8001258 <main+0xfb4>)
 80011d6:	5cd3      	ldrb	r3, [r2, r3]
 80011d8:	2b47      	cmp	r3, #71	; 0x47
 80011da:	d12d      	bne.n	8001238 <main+0xf94>
		  				&& (data_in_uart1[i+4] == 0x4C) && (data_in_uart1[i+5] == 0x4C))//filtrar dados GPGLL
 80011dc:	187b      	adds	r3, r7, r1
 80011de:	781b      	ldrb	r3, [r3, #0]
 80011e0:	3304      	adds	r3, #4
 80011e2:	4a1d      	ldr	r2, [pc, #116]	; (8001258 <main+0xfb4>)
 80011e4:	5cd3      	ldrb	r3, [r2, r3]
 80011e6:	2b4c      	cmp	r3, #76	; 0x4c
 80011e8:	d126      	bne.n	8001238 <main+0xf94>
 80011ea:	187b      	adds	r3, r7, r1
 80011ec:	781b      	ldrb	r3, [r3, #0]
 80011ee:	3305      	adds	r3, #5
 80011f0:	4a19      	ldr	r2, [pc, #100]	; (8001258 <main+0xfb4>)
 80011f2:	5cd3      	ldrb	r3, [r2, r3]
 80011f4:	2b4c      	cmp	r3, #76	; 0x4c
 80011f6:	d11f      	bne.n	8001238 <main+0xf94>
		  		{
		  			for(uint8_t j = 0; j<=43; j++)
 80011f8:	4b22      	ldr	r3, [pc, #136]	; (8001284 <main+0xfe0>)
 80011fa:	18fb      	adds	r3, r7, r3
 80011fc:	2200      	movs	r2, #0
 80011fe:	701a      	strb	r2, [r3, #0]
 8001200:	e014      	b.n	800122c <main+0xf88>
		  			{
		  				data_filter_uart1[j] = data_in_uart1[i+j];
 8001202:	23eb      	movs	r3, #235	; 0xeb
 8001204:	009b      	lsls	r3, r3, #2
 8001206:	18fb      	adds	r3, r7, r3
 8001208:	781a      	ldrb	r2, [r3, #0]
 800120a:	481e      	ldr	r0, [pc, #120]	; (8001284 <main+0xfe0>)
 800120c:	183b      	adds	r3, r7, r0
 800120e:	781b      	ldrb	r3, [r3, #0]
 8001210:	18d2      	adds	r2, r2, r3
 8001212:	183b      	adds	r3, r7, r0
 8001214:	781b      	ldrb	r3, [r3, #0]
 8001216:	4910      	ldr	r1, [pc, #64]	; (8001258 <main+0xfb4>)
 8001218:	5c89      	ldrb	r1, [r1, r2]
 800121a:	22d0      	movs	r2, #208	; 0xd0
 800121c:	0092      	lsls	r2, r2, #2
 800121e:	18ba      	adds	r2, r7, r2
 8001220:	54d1      	strb	r1, [r2, r3]
		  			for(uint8_t j = 0; j<=43; j++)
 8001222:	183b      	adds	r3, r7, r0
 8001224:	781a      	ldrb	r2, [r3, #0]
 8001226:	183b      	adds	r3, r7, r0
 8001228:	3201      	adds	r2, #1
 800122a:	701a      	strb	r2, [r3, #0]
 800122c:	4b15      	ldr	r3, [pc, #84]	; (8001284 <main+0xfe0>)
 800122e:	18fb      	adds	r3, r7, r3
 8001230:	781b      	ldrb	r3, [r3, #0]
 8001232:	2b2b      	cmp	r3, #43	; 0x2b
 8001234:	d9e5      	bls.n	8001202 <main+0xf5e>
		  			}
		  			break;
 8001236:	e007      	b.n	8001248 <main+0xfa4>
		  for (uint8_t i = 0; i<=400; i++)
 8001238:	21eb      	movs	r1, #235	; 0xeb
 800123a:	0089      	lsls	r1, r1, #2
 800123c:	187b      	adds	r3, r7, r1
 800123e:	781a      	ldrb	r2, [r3, #0]
 8001240:	187b      	adds	r3, r7, r1
 8001242:	3201      	adds	r2, #1
 8001244:	701a      	strb	r2, [r3, #0]
		  		if ((data_in_uart1[i] == 0x24) && (data_in_uart1[i+1] == 0x47) && (data_in_uart1[i+2] == 0x50) && (data_in_uart1[i+3] == 0x47)
 8001246:	e7ac      	b.n	80011a2 <main+0xefe>
		  		}
		  	}

		  if (data_filter_uart1[7] == 0x2C) //0x2C  o caractere ascii ","
 8001248:	23d0      	movs	r3, #208	; 0xd0
 800124a:	009b      	lsls	r3, r3, #2
 800124c:	18fb      	adds	r3, r7, r3
 800124e:	79db      	ldrb	r3, [r3, #7]
 8001250:	2b2c      	cmp	r3, #44	; 0x2c
 8001252:	d000      	beq.n	8001256 <main+0xfb2>
 8001254:	e1e6      	b.n	8001624 <main+0x1380>
		  {
			  //INCIO VERIFICAO DE CONECTIVIDADE GPRS
			  while (ctrl_creg_loop == false)
 8001256:	e164      	b.n	8001522 <main+0x127e>
 8001258:	20000174 	.word	0x20000174
 800125c:	20000028 	.word	0x20000028
 8001260:	20000308 	.word	0x20000308
 8001264:	200000ac 	.word	0x200000ac
 8001268:	00007530 	.word	0x00007530
 800126c:	20000346 	.word	0x20000346
 8001270:	000003ae 	.word	0x000003ae
 8001274:	000003ad 	.word	0x000003ad
 8001278:	000003af 	.word	0x000003af
 800127c:	00001388 	.word	0x00001388
 8001280:	20000345 	.word	0x20000345
 8001284:	000003ab 	.word	0x000003ab
			  {
				  HAL_UART_Transmit(&huart2, (unsigned char *)at_command[AT_CREG], strlen((const char *)at_command[AT_CREG]), 100);
 8001288:	2498      	movs	r4, #152	; 0x98
 800128a:	193b      	adds	r3, r7, r4
 800128c:	3396      	adds	r3, #150	; 0x96
 800128e:	0018      	movs	r0, r3
 8001290:	f7fe ff3a 	bl	8000108 <strlen>
 8001294:	0003      	movs	r3, r0
 8001296:	b29a      	uxth	r2, r3
 8001298:	193b      	adds	r3, r7, r4
 800129a:	3396      	adds	r3, #150	; 0x96
 800129c:	0019      	movs	r1, r3
 800129e:	48d7      	ldr	r0, [pc, #860]	; (80015fc <main+0x1358>)
 80012a0:	2364      	movs	r3, #100	; 0x64
 80012a2:	f002 fa4b 	bl	800373c <HAL_UART_Transmit>
			  	  HAL_Delay(500);
 80012a6:	23fa      	movs	r3, #250	; 0xfa
 80012a8:	005b      	lsls	r3, r3, #1
 80012aa:	0018      	movs	r0, r3
 80012ac:	f001 f88a 	bl	80023c4 <HAL_Delay>
			  	  if (ctrl_uart2 == true)
 80012b0:	4bd3      	ldr	r3, [pc, #844]	; (8001600 <main+0x135c>)
 80012b2:	781b      	ldrb	r3, [r3, #0]
 80012b4:	2b01      	cmp	r3, #1
 80012b6:	d158      	bne.n	800136a <main+0x10c6>
			  	  {
			  		  for (uint8_t a = 0; a<=60; a++)
 80012b8:	4bd2      	ldr	r3, [pc, #840]	; (8001604 <main+0x1360>)
 80012ba:	18fb      	adds	r3, r7, r3
 80012bc:	2200      	movs	r2, #0
 80012be:	701a      	strb	r2, [r3, #0]
 80012c0:	e04e      	b.n	8001360 <main+0x10bc>
			  		  {
			  			  if ((data_in_uart2[a] == 0x2B) && (data_in_uart2[a+1] == 0x43) && (data_in_uart2[a+2] == 0x52) && (data_in_uart2[a+3] == 0x45)
 80012c2:	49d0      	ldr	r1, [pc, #832]	; (8001604 <main+0x1360>)
 80012c4:	187b      	adds	r3, r7, r1
 80012c6:	781b      	ldrb	r3, [r3, #0]
 80012c8:	4acf      	ldr	r2, [pc, #828]	; (8001608 <main+0x1364>)
 80012ca:	5cd3      	ldrb	r3, [r2, r3]
 80012cc:	2b2b      	cmp	r3, #43	; 0x2b
 80012ce:	d141      	bne.n	8001354 <main+0x10b0>
 80012d0:	187b      	adds	r3, r7, r1
 80012d2:	781b      	ldrb	r3, [r3, #0]
 80012d4:	3301      	adds	r3, #1
 80012d6:	4acc      	ldr	r2, [pc, #816]	; (8001608 <main+0x1364>)
 80012d8:	5cd3      	ldrb	r3, [r2, r3]
 80012da:	2b43      	cmp	r3, #67	; 0x43
 80012dc:	d13a      	bne.n	8001354 <main+0x10b0>
 80012de:	187b      	adds	r3, r7, r1
 80012e0:	781b      	ldrb	r3, [r3, #0]
 80012e2:	3302      	adds	r3, #2
 80012e4:	4ac8      	ldr	r2, [pc, #800]	; (8001608 <main+0x1364>)
 80012e6:	5cd3      	ldrb	r3, [r2, r3]
 80012e8:	2b52      	cmp	r3, #82	; 0x52
 80012ea:	d133      	bne.n	8001354 <main+0x10b0>
 80012ec:	187b      	adds	r3, r7, r1
 80012ee:	781b      	ldrb	r3, [r3, #0]
 80012f0:	3303      	adds	r3, #3
 80012f2:	4ac5      	ldr	r2, [pc, #788]	; (8001608 <main+0x1364>)
 80012f4:	5cd3      	ldrb	r3, [r2, r3]
 80012f6:	2b45      	cmp	r3, #69	; 0x45
 80012f8:	d12c      	bne.n	8001354 <main+0x10b0>
			  					  && (data_in_uart2[a+4] == 0x47) && (data_in_uart2[a+5] == 0x3A))//filtrar dados +CREG:
 80012fa:	187b      	adds	r3, r7, r1
 80012fc:	781b      	ldrb	r3, [r3, #0]
 80012fe:	3304      	adds	r3, #4
 8001300:	4ac1      	ldr	r2, [pc, #772]	; (8001608 <main+0x1364>)
 8001302:	5cd3      	ldrb	r3, [r2, r3]
 8001304:	2b47      	cmp	r3, #71	; 0x47
 8001306:	d125      	bne.n	8001354 <main+0x10b0>
 8001308:	187b      	adds	r3, r7, r1
 800130a:	781b      	ldrb	r3, [r3, #0]
 800130c:	3305      	adds	r3, #5
 800130e:	4abe      	ldr	r2, [pc, #760]	; (8001608 <main+0x1364>)
 8001310:	5cd3      	ldrb	r3, [r2, r3]
 8001312:	2b3a      	cmp	r3, #58	; 0x3a
 8001314:	d11e      	bne.n	8001354 <main+0x10b0>
			  			  {
			  				  for(uint8_t b = 0; b<=10; b++)
 8001316:	4bbd      	ldr	r3, [pc, #756]	; (800160c <main+0x1368>)
 8001318:	18fb      	adds	r3, r7, r3
 800131a:	2200      	movs	r2, #0
 800131c:	701a      	strb	r2, [r3, #0]
 800131e:	e013      	b.n	8001348 <main+0x10a4>
			  				  {
			  					  data_filter_uart2[b] = data_in_uart2[a+b];
 8001320:	4bb8      	ldr	r3, [pc, #736]	; (8001604 <main+0x1360>)
 8001322:	18fb      	adds	r3, r7, r3
 8001324:	781a      	ldrb	r2, [r3, #0]
 8001326:	48b9      	ldr	r0, [pc, #740]	; (800160c <main+0x1368>)
 8001328:	183b      	adds	r3, r7, r0
 800132a:	781b      	ldrb	r3, [r3, #0]
 800132c:	18d2      	adds	r2, r2, r3
 800132e:	183b      	adds	r3, r7, r0
 8001330:	781b      	ldrb	r3, [r3, #0]
 8001332:	49b5      	ldr	r1, [pc, #724]	; (8001608 <main+0x1364>)
 8001334:	5c89      	ldrb	r1, [r1, r2]
 8001336:	22b7      	movs	r2, #183	; 0xb7
 8001338:	0092      	lsls	r2, r2, #2
 800133a:	18ba      	adds	r2, r7, r2
 800133c:	54d1      	strb	r1, [r2, r3]
			  				  for(uint8_t b = 0; b<=10; b++)
 800133e:	183b      	adds	r3, r7, r0
 8001340:	781a      	ldrb	r2, [r3, #0]
 8001342:	183b      	adds	r3, r7, r0
 8001344:	3201      	adds	r2, #1
 8001346:	701a      	strb	r2, [r3, #0]
 8001348:	4bb0      	ldr	r3, [pc, #704]	; (800160c <main+0x1368>)
 800134a:	18fb      	adds	r3, r7, r3
 800134c:	781b      	ldrb	r3, [r3, #0]
 800134e:	2b0a      	cmp	r3, #10
 8001350:	d9e6      	bls.n	8001320 <main+0x107c>
			  				  }
			  				  break;
 8001352:	e00a      	b.n	800136a <main+0x10c6>
			  		  for (uint8_t a = 0; a<=60; a++)
 8001354:	49ab      	ldr	r1, [pc, #684]	; (8001604 <main+0x1360>)
 8001356:	187b      	adds	r3, r7, r1
 8001358:	781a      	ldrb	r2, [r3, #0]
 800135a:	187b      	adds	r3, r7, r1
 800135c:	3201      	adds	r2, #1
 800135e:	701a      	strb	r2, [r3, #0]
 8001360:	4ba8      	ldr	r3, [pc, #672]	; (8001604 <main+0x1360>)
 8001362:	18fb      	adds	r3, r7, r3
 8001364:	781b      	ldrb	r3, [r3, #0]
 8001366:	2b3c      	cmp	r3, #60	; 0x3c
 8001368:	d9ab      	bls.n	80012c2 <main+0x101e>
			  			  }
			  		  }
			  	  }
			  	  if ((data_filter_uart2[9] == 0x31) || (data_filter_uart2[9] == 0x35))
 800136a:	22b7      	movs	r2, #183	; 0xb7
 800136c:	0092      	lsls	r2, r2, #2
 800136e:	18bb      	adds	r3, r7, r2
 8001370:	7a5b      	ldrb	r3, [r3, #9]
 8001372:	2b31      	cmp	r3, #49	; 0x31
 8001374:	d003      	beq.n	800137e <main+0x10da>
 8001376:	18bb      	adds	r3, r7, r2
 8001378:	7a5b      	ldrb	r3, [r3, #9]
 800137a:	2b35      	cmp	r3, #53	; 0x35
 800137c:	d10c      	bne.n	8001398 <main+0x10f4>
			  	  {
			  		  HAL_UART_Transmit(&huart1, (unsigned char *)data_filter_uart2, 10, 100);
 800137e:	23b7      	movs	r3, #183	; 0xb7
 8001380:	009b      	lsls	r3, r3, #2
 8001382:	18f9      	adds	r1, r7, r3
 8001384:	48a2      	ldr	r0, [pc, #648]	; (8001610 <main+0x136c>)
 8001386:	2364      	movs	r3, #100	; 0x64
 8001388:	220a      	movs	r2, #10
 800138a:	f002 f9d7 	bl	800373c <HAL_UART_Transmit>
			  		  ctrl_creg_loop = true;
 800138e:	4ba1      	ldr	r3, [pc, #644]	; (8001614 <main+0x1370>)
 8001390:	18fb      	adds	r3, r7, r3
 8001392:	2201      	movs	r2, #1
 8001394:	701a      	strb	r2, [r3, #0]
 8001396:	e0b8      	b.n	800150a <main+0x1266>
			  	  }
			  	  else
			  	  {
			  		  HAL_UART_Transmit(&huart1, (unsigned char *)data_filter_uart2, 10, 100);
 8001398:	23b7      	movs	r3, #183	; 0xb7
 800139a:	009b      	lsls	r3, r3, #2
 800139c:	18f9      	adds	r1, r7, r3
 800139e:	489c      	ldr	r0, [pc, #624]	; (8001610 <main+0x136c>)
 80013a0:	2364      	movs	r3, #100	; 0x64
 80013a2:	220a      	movs	r2, #10
 80013a4:	f002 f9ca 	bl	800373c <HAL_UART_Transmit>
			  		  //reset SIM800L
			  		  HAL_GPIO_WritePin(RESET_SIM800l_GPIO_Port, RESET_SIM800l_Pin, GPIO_PIN_RESET);
 80013a8:	2380      	movs	r3, #128	; 0x80
 80013aa:	0219      	lsls	r1, r3, #8
 80013ac:	2390      	movs	r3, #144	; 0x90
 80013ae:	05db      	lsls	r3, r3, #23
 80013b0:	2200      	movs	r2, #0
 80013b2:	0018      	movs	r0, r3
 80013b4:	f001 fbfc 	bl	8002bb0 <HAL_GPIO_WritePin>
			  		  HAL_Delay(1000);
 80013b8:	23fa      	movs	r3, #250	; 0xfa
 80013ba:	009b      	lsls	r3, r3, #2
 80013bc:	0018      	movs	r0, r3
 80013be:	f001 f801 	bl	80023c4 <HAL_Delay>
			  		  HAL_GPIO_WritePin(RESET_SIM800l_GPIO_Port, RESET_SIM800l_Pin, GPIO_PIN_SET);
 80013c2:	2380      	movs	r3, #128	; 0x80
 80013c4:	0219      	lsls	r1, r3, #8
 80013c6:	2390      	movs	r3, #144	; 0x90
 80013c8:	05db      	lsls	r3, r3, #23
 80013ca:	2201      	movs	r2, #1
 80013cc:	0018      	movs	r0, r3
 80013ce:	f001 fbef 	bl	8002bb0 <HAL_GPIO_WritePin>
			  		  HAL_Delay(30000);
 80013d2:	4b91      	ldr	r3, [pc, #580]	; (8001618 <main+0x1374>)
 80013d4:	0018      	movs	r0, r3
 80013d6:	f000 fff5 	bl	80023c4 <HAL_Delay>

			  		  HAL_UART_Transmit(&huart2, (unsigned char *)at_command[AT], strlen((const char *)at_command[AT]), 100);
 80013da:	2498      	movs	r4, #152	; 0x98
 80013dc:	193b      	adds	r3, r7, r4
 80013de:	0018      	movs	r0, r3
 80013e0:	f7fe fe92 	bl	8000108 <strlen>
 80013e4:	0003      	movs	r3, r0
 80013e6:	b29a      	uxth	r2, r3
 80013e8:	1939      	adds	r1, r7, r4
 80013ea:	4884      	ldr	r0, [pc, #528]	; (80015fc <main+0x1358>)
 80013ec:	2364      	movs	r3, #100	; 0x64
 80013ee:	f002 f9a5 	bl	800373c <HAL_UART_Transmit>
			  		  HAL_Delay(500);
 80013f2:	23fa      	movs	r3, #250	; 0xfa
 80013f4:	005b      	lsls	r3, r3, #1
 80013f6:	0018      	movs	r0, r3
 80013f8:	f000 ffe4 	bl	80023c4 <HAL_Delay>
			  		  HAL_UART_Transmit(&huart2, (unsigned char *)at_command[AT_CFUN], strlen((const char *)at_command[AT_CFUN]), 100);
 80013fc:	193b      	adds	r3, r7, r4
 80013fe:	3332      	adds	r3, #50	; 0x32
 8001400:	0018      	movs	r0, r3
 8001402:	f7fe fe81 	bl	8000108 <strlen>
 8001406:	0003      	movs	r3, r0
 8001408:	b29a      	uxth	r2, r3
 800140a:	193b      	adds	r3, r7, r4
 800140c:	3332      	adds	r3, #50	; 0x32
 800140e:	0019      	movs	r1, r3
 8001410:	487a      	ldr	r0, [pc, #488]	; (80015fc <main+0x1358>)
 8001412:	2364      	movs	r3, #100	; 0x64
 8001414:	f002 f992 	bl	800373c <HAL_UART_Transmit>
			  		  HAL_Delay(500);
 8001418:	23fa      	movs	r3, #250	; 0xfa
 800141a:	005b      	lsls	r3, r3, #1
 800141c:	0018      	movs	r0, r3
 800141e:	f000 ffd1 	bl	80023c4 <HAL_Delay>
			  		  HAL_UART_Transmit(&huart2, (unsigned char *)at_command[AT_CPIN], strlen((const char *)at_command[AT_CPIN]), 100);
 8001422:	193b      	adds	r3, r7, r4
 8001424:	3364      	adds	r3, #100	; 0x64
 8001426:	0018      	movs	r0, r3
 8001428:	f7fe fe6e 	bl	8000108 <strlen>
 800142c:	0003      	movs	r3, r0
 800142e:	b29a      	uxth	r2, r3
 8001430:	193b      	adds	r3, r7, r4
 8001432:	3364      	adds	r3, #100	; 0x64
 8001434:	0019      	movs	r1, r3
 8001436:	4871      	ldr	r0, [pc, #452]	; (80015fc <main+0x1358>)
 8001438:	2364      	movs	r3, #100	; 0x64
 800143a:	f002 f97f 	bl	800373c <HAL_UART_Transmit>
			  		  HAL_Delay(500);
 800143e:	23fa      	movs	r3, #250	; 0xfa
 8001440:	005b      	lsls	r3, r3, #1
 8001442:	0018      	movs	r0, r3
 8001444:	f000 ffbe 	bl	80023c4 <HAL_Delay>
			  		  HAL_UART_Transmit(&huart2, (unsigned char *)at_command[AT_CREG], strlen((const char *)at_command[AT_CREG]), 100);
 8001448:	193b      	adds	r3, r7, r4
 800144a:	3396      	adds	r3, #150	; 0x96
 800144c:	0018      	movs	r0, r3
 800144e:	f7fe fe5b 	bl	8000108 <strlen>
 8001452:	0003      	movs	r3, r0
 8001454:	b29a      	uxth	r2, r3
 8001456:	193b      	adds	r3, r7, r4
 8001458:	3396      	adds	r3, #150	; 0x96
 800145a:	0019      	movs	r1, r3
 800145c:	4867      	ldr	r0, [pc, #412]	; (80015fc <main+0x1358>)
 800145e:	2364      	movs	r3, #100	; 0x64
 8001460:	f002 f96c 	bl	800373c <HAL_UART_Transmit>
			  		  HAL_Delay(500);
 8001464:	23fa      	movs	r3, #250	; 0xfa
 8001466:	005b      	lsls	r3, r3, #1
 8001468:	0018      	movs	r0, r3
 800146a:	f000 ffab 	bl	80023c4 <HAL_Delay>
			  		  HAL_UART_Transmit(&huart2, (unsigned char *)at_command[AT_CSQ], strlen((const char *)at_command[AT_CSQ]), 100);
 800146e:	193b      	adds	r3, r7, r4
 8001470:	33c8      	adds	r3, #200	; 0xc8
 8001472:	0018      	movs	r0, r3
 8001474:	f7fe fe48 	bl	8000108 <strlen>
 8001478:	0003      	movs	r3, r0
 800147a:	b29a      	uxth	r2, r3
 800147c:	193b      	adds	r3, r7, r4
 800147e:	33c8      	adds	r3, #200	; 0xc8
 8001480:	0019      	movs	r1, r3
 8001482:	485e      	ldr	r0, [pc, #376]	; (80015fc <main+0x1358>)
 8001484:	2364      	movs	r3, #100	; 0x64
 8001486:	f002 f959 	bl	800373c <HAL_UART_Transmit>
			  		  HAL_Delay(500);
 800148a:	23fa      	movs	r3, #250	; 0xfa
 800148c:	005b      	lsls	r3, r3, #1
 800148e:	0018      	movs	r0, r3
 8001490:	f000 ff98 	bl	80023c4 <HAL_Delay>
			  		  HAL_UART_Transmit(&huart2, (unsigned char *)at_command[AT_CSTT], strlen((const char *)at_command[AT_CSTT]), 100);
 8001494:	193b      	adds	r3, r7, r4
 8001496:	33fa      	adds	r3, #250	; 0xfa
 8001498:	0018      	movs	r0, r3
 800149a:	f7fe fe35 	bl	8000108 <strlen>
 800149e:	0003      	movs	r3, r0
 80014a0:	b29a      	uxth	r2, r3
 80014a2:	193b      	adds	r3, r7, r4
 80014a4:	33fa      	adds	r3, #250	; 0xfa
 80014a6:	0019      	movs	r1, r3
 80014a8:	4854      	ldr	r0, [pc, #336]	; (80015fc <main+0x1358>)
 80014aa:	2364      	movs	r3, #100	; 0x64
 80014ac:	f002 f946 	bl	800373c <HAL_UART_Transmit>
			  		  HAL_Delay(500);
 80014b0:	23fa      	movs	r3, #250	; 0xfa
 80014b2:	005b      	lsls	r3, r3, #1
 80014b4:	0018      	movs	r0, r3
 80014b6:	f000 ff85 	bl	80023c4 <HAL_Delay>
			  		  HAL_UART_Transmit(&huart2, (unsigned char *)at_command[AT_CIICR], strlen((const char *)at_command[AT_CIICR]), 100);
 80014ba:	193b      	adds	r3, r7, r4
 80014bc:	332d      	adds	r3, #45	; 0x2d
 80014be:	33ff      	adds	r3, #255	; 0xff
 80014c0:	0018      	movs	r0, r3
 80014c2:	f7fe fe21 	bl	8000108 <strlen>
 80014c6:	0003      	movs	r3, r0
 80014c8:	b29a      	uxth	r2, r3
 80014ca:	193b      	adds	r3, r7, r4
 80014cc:	332d      	adds	r3, #45	; 0x2d
 80014ce:	33ff      	adds	r3, #255	; 0xff
 80014d0:	0019      	movs	r1, r3
 80014d2:	484a      	ldr	r0, [pc, #296]	; (80015fc <main+0x1358>)
 80014d4:	2364      	movs	r3, #100	; 0x64
 80014d6:	f002 f931 	bl	800373c <HAL_UART_Transmit>
			  		  HAL_Delay(5000);
 80014da:	4b50      	ldr	r3, [pc, #320]	; (800161c <main+0x1378>)
 80014dc:	0018      	movs	r0, r3
 80014de:	f000 ff71 	bl	80023c4 <HAL_Delay>
			  		  HAL_UART_Transmit(&huart2, (unsigned char *)at_command[AT_CIFSR], strlen((const char *)at_command[AT_CIFSR]), 100);
 80014e2:	193b      	adds	r3, r7, r4
 80014e4:	335f      	adds	r3, #95	; 0x5f
 80014e6:	33ff      	adds	r3, #255	; 0xff
 80014e8:	0018      	movs	r0, r3
 80014ea:	f7fe fe0d 	bl	8000108 <strlen>
 80014ee:	0003      	movs	r3, r0
 80014f0:	b29a      	uxth	r2, r3
 80014f2:	193b      	adds	r3, r7, r4
 80014f4:	335f      	adds	r3, #95	; 0x5f
 80014f6:	33ff      	adds	r3, #255	; 0xff
 80014f8:	0019      	movs	r1, r3
 80014fa:	4840      	ldr	r0, [pc, #256]	; (80015fc <main+0x1358>)
 80014fc:	2364      	movs	r3, #100	; 0x64
 80014fe:	f002 f91d 	bl	800373c <HAL_UART_Transmit>
			  		  HAL_Delay(5000);
 8001502:	4b46      	ldr	r3, [pc, #280]	; (800161c <main+0x1378>)
 8001504:	0018      	movs	r0, r3
 8001506:	f000 ff5d 	bl	80023c4 <HAL_Delay>
			  	  }
			  	  HAL_GPIO_TogglePin(LED_PC13_GPIO_Port, LED_PC13_Pin);
 800150a:	2380      	movs	r3, #128	; 0x80
 800150c:	019b      	lsls	r3, r3, #6
 800150e:	4a44      	ldr	r2, [pc, #272]	; (8001620 <main+0x137c>)
 8001510:	0019      	movs	r1, r3
 8001512:	0010      	movs	r0, r2
 8001514:	f001 fb69 	bl	8002bea <HAL_GPIO_TogglePin>
			  	  HAL_Delay(500);
 8001518:	23fa      	movs	r3, #250	; 0xfa
 800151a:	005b      	lsls	r3, r3, #1
 800151c:	0018      	movs	r0, r3
 800151e:	f000 ff51 	bl	80023c4 <HAL_Delay>
			  while (ctrl_creg_loop == false)
 8001522:	4a3c      	ldr	r2, [pc, #240]	; (8001614 <main+0x1370>)
 8001524:	18bb      	adds	r3, r7, r2
 8001526:	781b      	ldrb	r3, [r3, #0]
 8001528:	2b00      	cmp	r3, #0
 800152a:	d100      	bne.n	800152e <main+0x128a>
 800152c:	e6ac      	b.n	8001288 <main+0xfe4>
			  }
			  ctrl_creg_loop = false;
 800152e:	18bb      	adds	r3, r7, r2
 8001530:	2200      	movs	r2, #0
 8001532:	701a      	strb	r2, [r3, #0]
			  //FIM VERIFICAO DE CONECTIVIDADE GPRS

			  HAL_UART_Transmit(&huart2, (unsigned char *)at_command[AT_CIPSTART], strlen((const char *)at_command[AT_CIPSTART]), 100);
 8001534:	2498      	movs	r4, #152	; 0x98
 8001536:	193b      	adds	r3, r7, r4
 8001538:	3391      	adds	r3, #145	; 0x91
 800153a:	33ff      	adds	r3, #255	; 0xff
 800153c:	0018      	movs	r0, r3
 800153e:	f7fe fde3 	bl	8000108 <strlen>
 8001542:	0003      	movs	r3, r0
 8001544:	b29a      	uxth	r2, r3
 8001546:	193b      	adds	r3, r7, r4
 8001548:	3391      	adds	r3, #145	; 0x91
 800154a:	33ff      	adds	r3, #255	; 0xff
 800154c:	0019      	movs	r1, r3
 800154e:	482b      	ldr	r0, [pc, #172]	; (80015fc <main+0x1358>)
 8001550:	2364      	movs	r3, #100	; 0x64
 8001552:	f002 f8f3 	bl	800373c <HAL_UART_Transmit>
			  HAL_Delay(5000);
 8001556:	4b31      	ldr	r3, [pc, #196]	; (800161c <main+0x1378>)
 8001558:	0018      	movs	r0, r3
 800155a:	f000 ff33 	bl	80023c4 <HAL_Delay>

			  HAL_UART_Transmit(&huart2, (unsigned char *)at_command[AT_CIPSEND], strlen((const char *)at_command[AT_CIPSEND]), 100);
 800155e:	193b      	adds	r3, r7, r4
 8001560:	33c3      	adds	r3, #195	; 0xc3
 8001562:	33ff      	adds	r3, #255	; 0xff
 8001564:	0018      	movs	r0, r3
 8001566:	f7fe fdcf 	bl	8000108 <strlen>
 800156a:	0003      	movs	r3, r0
 800156c:	b29a      	uxth	r2, r3
 800156e:	193b      	adds	r3, r7, r4
 8001570:	33c3      	adds	r3, #195	; 0xc3
 8001572:	33ff      	adds	r3, #255	; 0xff
 8001574:	0019      	movs	r1, r3
 8001576:	4821      	ldr	r0, [pc, #132]	; (80015fc <main+0x1358>)
 8001578:	2364      	movs	r3, #100	; 0x64
 800157a:	f002 f8df 	bl	800373c <HAL_UART_Transmit>
			  HAL_Delay(2000);
 800157e:	23fa      	movs	r3, #250	; 0xfa
 8001580:	00db      	lsls	r3, r3, #3
 8001582:	0018      	movs	r0, r3
 8001584:	f000 ff1e 	bl	80023c4 <HAL_Delay>

			  HAL_UART_Transmit(&huart2, (unsigned char *)mqtt_packt_error, 36, 100);
 8001588:	0039      	movs	r1, r7
 800158a:	481c      	ldr	r0, [pc, #112]	; (80015fc <main+0x1358>)
 800158c:	2364      	movs	r3, #100	; 0x64
 800158e:	2224      	movs	r2, #36	; 0x24
 8001590:	f002 f8d4 	bl	800373c <HAL_UART_Transmit>

			  HAL_UART_Transmit(&huart2, (unsigned char *)error_msg_NS, strlen((const char *)error_msg_NS), 100);
 8001594:	25b5      	movs	r5, #181	; 0xb5
 8001596:	00ad      	lsls	r5, r5, #2
 8001598:	197b      	adds	r3, r7, r5
 800159a:	0018      	movs	r0, r3
 800159c:	f7fe fdb4 	bl	8000108 <strlen>
 80015a0:	0003      	movs	r3, r0
 80015a2:	b29a      	uxth	r2, r3
 80015a4:	1979      	adds	r1, r7, r5
 80015a6:	4815      	ldr	r0, [pc, #84]	; (80015fc <main+0x1358>)
 80015a8:	2364      	movs	r3, #100	; 0x64
 80015aa:	f002 f8c7 	bl	800373c <HAL_UART_Transmit>
			  HAL_UART_Transmit(&huart2, (unsigned char *)send_msg, strlen((const char *)send_msg), 100);
 80015ae:	25b0      	movs	r5, #176	; 0xb0
 80015b0:	00ad      	lsls	r5, r5, #2
 80015b2:	197b      	adds	r3, r7, r5
 80015b4:	0018      	movs	r0, r3
 80015b6:	f7fe fda7 	bl	8000108 <strlen>
 80015ba:	0003      	movs	r3, r0
 80015bc:	b29a      	uxth	r2, r3
 80015be:	1979      	adds	r1, r7, r5
 80015c0:	480e      	ldr	r0, [pc, #56]	; (80015fc <main+0x1358>)
 80015c2:	2364      	movs	r3, #100	; 0x64
 80015c4:	f002 f8ba 	bl	800373c <HAL_UART_Transmit>
			  HAL_Delay(5000);
 80015c8:	4b14      	ldr	r3, [pc, #80]	; (800161c <main+0x1378>)
 80015ca:	0018      	movs	r0, r3
 80015cc:	f000 fefa 	bl	80023c4 <HAL_Delay>

			  HAL_UART_Transmit(&huart2, (unsigned char *)at_command[AT_CIPCLOSE], strlen((const char *)at_command[AT_CIPCLOSE]), 100);
 80015d0:	193b      	adds	r3, r7, r4
 80015d2:	33f5      	adds	r3, #245	; 0xf5
 80015d4:	33ff      	adds	r3, #255	; 0xff
 80015d6:	0018      	movs	r0, r3
 80015d8:	f7fe fd96 	bl	8000108 <strlen>
 80015dc:	0003      	movs	r3, r0
 80015de:	b29a      	uxth	r2, r3
 80015e0:	193b      	adds	r3, r7, r4
 80015e2:	33f5      	adds	r3, #245	; 0xf5
 80015e4:	33ff      	adds	r3, #255	; 0xff
 80015e6:	0019      	movs	r1, r3
 80015e8:	4804      	ldr	r0, [pc, #16]	; (80015fc <main+0x1358>)
 80015ea:	2364      	movs	r3, #100	; 0x64
 80015ec:	f002 f8a6 	bl	800373c <HAL_UART_Transmit>
			  HAL_Delay(5000);
 80015f0:	4b0a      	ldr	r3, [pc, #40]	; (800161c <main+0x1378>)
 80015f2:	0018      	movs	r0, r3
 80015f4:	f000 fee6 	bl	80023c4 <HAL_Delay>
 80015f8:	f000 fbd3 	bl	8001da2 <main+0x1afe>
 80015fc:	200000ac 	.word	0x200000ac
 8001600:	20000346 	.word	0x20000346
 8001604:	000003aa 	.word	0x000003aa
 8001608:	20000308 	.word	0x20000308
 800160c:	000003a9 	.word	0x000003a9
 8001610:	20000028 	.word	0x20000028
 8001614:	000003af 	.word	0x000003af
 8001618:	00007530 	.word	0x00007530
 800161c:	00001388 	.word	0x00001388
 8001620:	48000800 	.word	0x48000800
		  }
		  else
		  {
			  if ((data_filter_uart1[31] == 0x2C) && ((data_filter_uart1[32] == 0x45) || (data_filter_uart1[32] == 0x57)) && ((data_filter_uart1[33] == 0x2C)))
 8001624:	21d0      	movs	r1, #208	; 0xd0
 8001626:	0089      	lsls	r1, r1, #2
 8001628:	187b      	adds	r3, r7, r1
 800162a:	7fdb      	ldrb	r3, [r3, #31]
 800162c:	2b2c      	cmp	r3, #44	; 0x2c
 800162e:	d000      	beq.n	8001632 <main+0x138e>
 8001630:	e34a      	b.n	8001cc8 <main+0x1a24>
 8001632:	187b      	adds	r3, r7, r1
 8001634:	2220      	movs	r2, #32
 8001636:	5c9b      	ldrb	r3, [r3, r2]
 8001638:	2b45      	cmp	r3, #69	; 0x45
 800163a:	d005      	beq.n	8001648 <main+0x13a4>
 800163c:	187b      	adds	r3, r7, r1
 800163e:	2220      	movs	r2, #32
 8001640:	5c9b      	ldrb	r3, [r3, r2]
 8001642:	2b57      	cmp	r3, #87	; 0x57
 8001644:	d000      	beq.n	8001648 <main+0x13a4>
 8001646:	e33f      	b.n	8001cc8 <main+0x1a24>
 8001648:	21d0      	movs	r1, #208	; 0xd0
 800164a:	0089      	lsls	r1, r1, #2
 800164c:	187b      	adds	r3, r7, r1
 800164e:	2221      	movs	r2, #33	; 0x21
 8001650:	5c9b      	ldrb	r3, [r3, r2]
 8001652:	2b2c      	cmp	r3, #44	; 0x2c
 8001654:	d000      	beq.n	8001658 <main+0x13b4>
 8001656:	e337      	b.n	8001cc8 <main+0x1a24>
				{
				  if ((data_filter_uart1[6] == 0x2C) && (data_filter_uart1[17] == 0x2C) && ((data_filter_uart1[18] == 0x4E) || (data_filter_uart1[18] == 0x53))
 8001658:	187b      	adds	r3, r7, r1
 800165a:	799b      	ldrb	r3, [r3, #6]
 800165c:	2b2c      	cmp	r3, #44	; 0x2c
 800165e:	d000      	beq.n	8001662 <main+0x13be>
 8001660:	e39e      	b.n	8001da0 <main+0x1afc>
 8001662:	187b      	adds	r3, r7, r1
 8001664:	7c5b      	ldrb	r3, [r3, #17]
 8001666:	2b2c      	cmp	r3, #44	; 0x2c
 8001668:	d000      	beq.n	800166c <main+0x13c8>
 800166a:	e399      	b.n	8001da0 <main+0x1afc>
 800166c:	187b      	adds	r3, r7, r1
 800166e:	7c9b      	ldrb	r3, [r3, #18]
 8001670:	2b4e      	cmp	r3, #78	; 0x4e
 8001672:	d004      	beq.n	800167e <main+0x13da>
 8001674:	187b      	adds	r3, r7, r1
 8001676:	7c9b      	ldrb	r3, [r3, #18]
 8001678:	2b53      	cmp	r3, #83	; 0x53
 800167a:	d000      	beq.n	800167e <main+0x13da>
 800167c:	e390      	b.n	8001da0 <main+0x1afc>
				  		  					&& (data_filter_uart1[19] == 0x2C))//gambiarra
 800167e:	23d0      	movs	r3, #208	; 0xd0
 8001680:	009b      	lsls	r3, r3, #2
 8001682:	18fb      	adds	r3, r7, r3
 8001684:	7cdb      	ldrb	r3, [r3, #19]
 8001686:	2b2c      	cmp	r3, #44	; 0x2c
 8001688:	d000      	beq.n	800168c <main+0x13e8>
 800168a:	e389      	b.n	8001da0 <main+0x1afc>
				  {
					  //INCIO VERIFICAO DE CONECTIVIDADE GPRS
					  while (ctrl_creg_loop == false)
 800168c:	e151      	b.n	8001932 <main+0x168e>
					  {
						  HAL_UART_Transmit(&huart2, (unsigned char *)at_command[AT_CREG], strlen((const char *)at_command[AT_CREG]), 100);
 800168e:	2498      	movs	r4, #152	; 0x98
 8001690:	193b      	adds	r3, r7, r4
 8001692:	3396      	adds	r3, #150	; 0x96
 8001694:	0018      	movs	r0, r3
 8001696:	f7fe fd37 	bl	8000108 <strlen>
 800169a:	0003      	movs	r3, r0
 800169c:	b29a      	uxth	r2, r3
 800169e:	193b      	adds	r3, r7, r4
 80016a0:	3396      	adds	r3, #150	; 0x96
 80016a2:	0019      	movs	r1, r3
 80016a4:	48e6      	ldr	r0, [pc, #920]	; (8001a40 <main+0x179c>)
 80016a6:	2364      	movs	r3, #100	; 0x64
 80016a8:	f002 f848 	bl	800373c <HAL_UART_Transmit>
						  HAL_Delay(500);
 80016ac:	23fa      	movs	r3, #250	; 0xfa
 80016ae:	005b      	lsls	r3, r3, #1
 80016b0:	0018      	movs	r0, r3
 80016b2:	f000 fe87 	bl	80023c4 <HAL_Delay>
						  if (ctrl_uart2 == true)
 80016b6:	4be3      	ldr	r3, [pc, #908]	; (8001a44 <main+0x17a0>)
 80016b8:	781b      	ldrb	r3, [r3, #0]
 80016ba:	2b01      	cmp	r3, #1
 80016bc:	d15d      	bne.n	800177a <main+0x14d6>
						  {
							  for (uint8_t a = 0; a<=60; a++)
 80016be:	23ea      	movs	r3, #234	; 0xea
 80016c0:	009b      	lsls	r3, r3, #2
 80016c2:	18fb      	adds	r3, r7, r3
 80016c4:	2200      	movs	r2, #0
 80016c6:	701a      	strb	r2, [r3, #0]
 80016c8:	e051      	b.n	800176e <main+0x14ca>
							  {
								  if ((data_in_uart2[a] == 0x2B) && (data_in_uart2[a+1] == 0x43) && (data_in_uart2[a+2] == 0x52) && (data_in_uart2[a+3] == 0x45)
 80016ca:	21ea      	movs	r1, #234	; 0xea
 80016cc:	0089      	lsls	r1, r1, #2
 80016ce:	187b      	adds	r3, r7, r1
 80016d0:	781b      	ldrb	r3, [r3, #0]
 80016d2:	4add      	ldr	r2, [pc, #884]	; (8001a48 <main+0x17a4>)
 80016d4:	5cd3      	ldrb	r3, [r2, r3]
 80016d6:	2b2b      	cmp	r3, #43	; 0x2b
 80016d8:	d142      	bne.n	8001760 <main+0x14bc>
 80016da:	187b      	adds	r3, r7, r1
 80016dc:	781b      	ldrb	r3, [r3, #0]
 80016de:	3301      	adds	r3, #1
 80016e0:	4ad9      	ldr	r2, [pc, #868]	; (8001a48 <main+0x17a4>)
 80016e2:	5cd3      	ldrb	r3, [r2, r3]
 80016e4:	2b43      	cmp	r3, #67	; 0x43
 80016e6:	d13b      	bne.n	8001760 <main+0x14bc>
 80016e8:	187b      	adds	r3, r7, r1
 80016ea:	781b      	ldrb	r3, [r3, #0]
 80016ec:	3302      	adds	r3, #2
 80016ee:	4ad6      	ldr	r2, [pc, #856]	; (8001a48 <main+0x17a4>)
 80016f0:	5cd3      	ldrb	r3, [r2, r3]
 80016f2:	2b52      	cmp	r3, #82	; 0x52
 80016f4:	d134      	bne.n	8001760 <main+0x14bc>
 80016f6:	187b      	adds	r3, r7, r1
 80016f8:	781b      	ldrb	r3, [r3, #0]
 80016fa:	3303      	adds	r3, #3
 80016fc:	4ad2      	ldr	r2, [pc, #840]	; (8001a48 <main+0x17a4>)
 80016fe:	5cd3      	ldrb	r3, [r2, r3]
 8001700:	2b45      	cmp	r3, #69	; 0x45
 8001702:	d12d      	bne.n	8001760 <main+0x14bc>
										  && (data_in_uart2[a+4] == 0x47) && (data_in_uart2[a+5] == 0x3A))//filtrar dados +CREG:
 8001704:	187b      	adds	r3, r7, r1
 8001706:	781b      	ldrb	r3, [r3, #0]
 8001708:	3304      	adds	r3, #4
 800170a:	4acf      	ldr	r2, [pc, #828]	; (8001a48 <main+0x17a4>)
 800170c:	5cd3      	ldrb	r3, [r2, r3]
 800170e:	2b47      	cmp	r3, #71	; 0x47
 8001710:	d126      	bne.n	8001760 <main+0x14bc>
 8001712:	187b      	adds	r3, r7, r1
 8001714:	781b      	ldrb	r3, [r3, #0]
 8001716:	3305      	adds	r3, #5
 8001718:	4acb      	ldr	r2, [pc, #812]	; (8001a48 <main+0x17a4>)
 800171a:	5cd3      	ldrb	r3, [r2, r3]
 800171c:	2b3a      	cmp	r3, #58	; 0x3a
 800171e:	d11f      	bne.n	8001760 <main+0x14bc>
					  			  {
									  for(uint8_t b = 0; b<=10; b++)
 8001720:	4bca      	ldr	r3, [pc, #808]	; (8001a4c <main+0x17a8>)
 8001722:	18fb      	adds	r3, r7, r3
 8001724:	2200      	movs	r2, #0
 8001726:	701a      	strb	r2, [r3, #0]
 8001728:	e014      	b.n	8001754 <main+0x14b0>
									  {
										  data_filter_uart2[b] = data_in_uart2[a+b];
 800172a:	23ea      	movs	r3, #234	; 0xea
 800172c:	009b      	lsls	r3, r3, #2
 800172e:	18fb      	adds	r3, r7, r3
 8001730:	781a      	ldrb	r2, [r3, #0]
 8001732:	48c6      	ldr	r0, [pc, #792]	; (8001a4c <main+0x17a8>)
 8001734:	183b      	adds	r3, r7, r0
 8001736:	781b      	ldrb	r3, [r3, #0]
 8001738:	18d2      	adds	r2, r2, r3
 800173a:	183b      	adds	r3, r7, r0
 800173c:	781b      	ldrb	r3, [r3, #0]
 800173e:	49c2      	ldr	r1, [pc, #776]	; (8001a48 <main+0x17a4>)
 8001740:	5c89      	ldrb	r1, [r1, r2]
 8001742:	22b7      	movs	r2, #183	; 0xb7
 8001744:	0092      	lsls	r2, r2, #2
 8001746:	18ba      	adds	r2, r7, r2
 8001748:	54d1      	strb	r1, [r2, r3]
									  for(uint8_t b = 0; b<=10; b++)
 800174a:	183b      	adds	r3, r7, r0
 800174c:	781a      	ldrb	r2, [r3, #0]
 800174e:	183b      	adds	r3, r7, r0
 8001750:	3201      	adds	r2, #1
 8001752:	701a      	strb	r2, [r3, #0]
 8001754:	4bbd      	ldr	r3, [pc, #756]	; (8001a4c <main+0x17a8>)
 8001756:	18fb      	adds	r3, r7, r3
 8001758:	781b      	ldrb	r3, [r3, #0]
 800175a:	2b0a      	cmp	r3, #10
 800175c:	d9e5      	bls.n	800172a <main+0x1486>
									  }
									  break;
 800175e:	e00c      	b.n	800177a <main+0x14d6>
							  for (uint8_t a = 0; a<=60; a++)
 8001760:	21ea      	movs	r1, #234	; 0xea
 8001762:	0089      	lsls	r1, r1, #2
 8001764:	187b      	adds	r3, r7, r1
 8001766:	781a      	ldrb	r2, [r3, #0]
 8001768:	187b      	adds	r3, r7, r1
 800176a:	3201      	adds	r2, #1
 800176c:	701a      	strb	r2, [r3, #0]
 800176e:	23ea      	movs	r3, #234	; 0xea
 8001770:	009b      	lsls	r3, r3, #2
 8001772:	18fb      	adds	r3, r7, r3
 8001774:	781b      	ldrb	r3, [r3, #0]
 8001776:	2b3c      	cmp	r3, #60	; 0x3c
 8001778:	d9a7      	bls.n	80016ca <main+0x1426>
					  			  }
							  }
						  }
						  if ((data_filter_uart2[9] == 0x31) || (data_filter_uart2[9] == 0x35))
 800177a:	22b7      	movs	r2, #183	; 0xb7
 800177c:	0092      	lsls	r2, r2, #2
 800177e:	18bb      	adds	r3, r7, r2
 8001780:	7a5b      	ldrb	r3, [r3, #9]
 8001782:	2b31      	cmp	r3, #49	; 0x31
 8001784:	d003      	beq.n	800178e <main+0x14ea>
 8001786:	18bb      	adds	r3, r7, r2
 8001788:	7a5b      	ldrb	r3, [r3, #9]
 800178a:	2b35      	cmp	r3, #53	; 0x35
 800178c:	d10c      	bne.n	80017a8 <main+0x1504>
						  {
							  HAL_UART_Transmit(&huart1, (unsigned char *)data_filter_uart2, 10, 100);
 800178e:	23b7      	movs	r3, #183	; 0xb7
 8001790:	009b      	lsls	r3, r3, #2
 8001792:	18f9      	adds	r1, r7, r3
 8001794:	48ae      	ldr	r0, [pc, #696]	; (8001a50 <main+0x17ac>)
 8001796:	2364      	movs	r3, #100	; 0x64
 8001798:	220a      	movs	r2, #10
 800179a:	f001 ffcf 	bl	800373c <HAL_UART_Transmit>
							  ctrl_creg_loop = true;
 800179e:	4bad      	ldr	r3, [pc, #692]	; (8001a54 <main+0x17b0>)
 80017a0:	18fb      	adds	r3, r7, r3
 80017a2:	2201      	movs	r2, #1
 80017a4:	701a      	strb	r2, [r3, #0]
 80017a6:	e0b8      	b.n	800191a <main+0x1676>
						  }
						  else
						  {
							  HAL_UART_Transmit(&huart1, (unsigned char *)data_filter_uart2, 10, 100);
 80017a8:	23b7      	movs	r3, #183	; 0xb7
 80017aa:	009b      	lsls	r3, r3, #2
 80017ac:	18f9      	adds	r1, r7, r3
 80017ae:	48a8      	ldr	r0, [pc, #672]	; (8001a50 <main+0x17ac>)
 80017b0:	2364      	movs	r3, #100	; 0x64
 80017b2:	220a      	movs	r2, #10
 80017b4:	f001 ffc2 	bl	800373c <HAL_UART_Transmit>
							  //reset SIM800L
							  HAL_GPIO_WritePin(RESET_SIM800l_GPIO_Port, RESET_SIM800l_Pin, GPIO_PIN_RESET);
 80017b8:	2380      	movs	r3, #128	; 0x80
 80017ba:	0219      	lsls	r1, r3, #8
 80017bc:	2390      	movs	r3, #144	; 0x90
 80017be:	05db      	lsls	r3, r3, #23
 80017c0:	2200      	movs	r2, #0
 80017c2:	0018      	movs	r0, r3
 80017c4:	f001 f9f4 	bl	8002bb0 <HAL_GPIO_WritePin>
							  HAL_Delay(1000);
 80017c8:	23fa      	movs	r3, #250	; 0xfa
 80017ca:	009b      	lsls	r3, r3, #2
 80017cc:	0018      	movs	r0, r3
 80017ce:	f000 fdf9 	bl	80023c4 <HAL_Delay>
							  HAL_GPIO_WritePin(RESET_SIM800l_GPIO_Port, RESET_SIM800l_Pin, GPIO_PIN_SET);
 80017d2:	2380      	movs	r3, #128	; 0x80
 80017d4:	0219      	lsls	r1, r3, #8
 80017d6:	2390      	movs	r3, #144	; 0x90
 80017d8:	05db      	lsls	r3, r3, #23
 80017da:	2201      	movs	r2, #1
 80017dc:	0018      	movs	r0, r3
 80017de:	f001 f9e7 	bl	8002bb0 <HAL_GPIO_WritePin>
							  HAL_Delay(30000);
 80017e2:	4b9d      	ldr	r3, [pc, #628]	; (8001a58 <main+0x17b4>)
 80017e4:	0018      	movs	r0, r3
 80017e6:	f000 fded 	bl	80023c4 <HAL_Delay>

							  HAL_UART_Transmit(&huart2, (unsigned char *)at_command[AT], strlen((const char *)at_command[AT]), 100);
 80017ea:	2498      	movs	r4, #152	; 0x98
 80017ec:	193b      	adds	r3, r7, r4
 80017ee:	0018      	movs	r0, r3
 80017f0:	f7fe fc8a 	bl	8000108 <strlen>
 80017f4:	0003      	movs	r3, r0
 80017f6:	b29a      	uxth	r2, r3
 80017f8:	1939      	adds	r1, r7, r4
 80017fa:	4891      	ldr	r0, [pc, #580]	; (8001a40 <main+0x179c>)
 80017fc:	2364      	movs	r3, #100	; 0x64
 80017fe:	f001 ff9d 	bl	800373c <HAL_UART_Transmit>
							  HAL_Delay(500);
 8001802:	23fa      	movs	r3, #250	; 0xfa
 8001804:	005b      	lsls	r3, r3, #1
 8001806:	0018      	movs	r0, r3
 8001808:	f000 fddc 	bl	80023c4 <HAL_Delay>
							  HAL_UART_Transmit(&huart2, (unsigned char *)at_command[AT_CFUN], strlen((const char *)at_command[AT_CFUN]), 100);
 800180c:	193b      	adds	r3, r7, r4
 800180e:	3332      	adds	r3, #50	; 0x32
 8001810:	0018      	movs	r0, r3
 8001812:	f7fe fc79 	bl	8000108 <strlen>
 8001816:	0003      	movs	r3, r0
 8001818:	b29a      	uxth	r2, r3
 800181a:	193b      	adds	r3, r7, r4
 800181c:	3332      	adds	r3, #50	; 0x32
 800181e:	0019      	movs	r1, r3
 8001820:	4887      	ldr	r0, [pc, #540]	; (8001a40 <main+0x179c>)
 8001822:	2364      	movs	r3, #100	; 0x64
 8001824:	f001 ff8a 	bl	800373c <HAL_UART_Transmit>
							  HAL_Delay(500);
 8001828:	23fa      	movs	r3, #250	; 0xfa
 800182a:	005b      	lsls	r3, r3, #1
 800182c:	0018      	movs	r0, r3
 800182e:	f000 fdc9 	bl	80023c4 <HAL_Delay>
							  HAL_UART_Transmit(&huart2, (unsigned char *)at_command[AT_CPIN], strlen((const char *)at_command[AT_CPIN]), 100);
 8001832:	193b      	adds	r3, r7, r4
 8001834:	3364      	adds	r3, #100	; 0x64
 8001836:	0018      	movs	r0, r3
 8001838:	f7fe fc66 	bl	8000108 <strlen>
 800183c:	0003      	movs	r3, r0
 800183e:	b29a      	uxth	r2, r3
 8001840:	193b      	adds	r3, r7, r4
 8001842:	3364      	adds	r3, #100	; 0x64
 8001844:	0019      	movs	r1, r3
 8001846:	487e      	ldr	r0, [pc, #504]	; (8001a40 <main+0x179c>)
 8001848:	2364      	movs	r3, #100	; 0x64
 800184a:	f001 ff77 	bl	800373c <HAL_UART_Transmit>
							  HAL_Delay(500);
 800184e:	23fa      	movs	r3, #250	; 0xfa
 8001850:	005b      	lsls	r3, r3, #1
 8001852:	0018      	movs	r0, r3
 8001854:	f000 fdb6 	bl	80023c4 <HAL_Delay>
							  HAL_UART_Transmit(&huart2, (unsigned char *)at_command[AT_CREG], strlen((const char *)at_command[AT_CREG]), 100);
 8001858:	193b      	adds	r3, r7, r4
 800185a:	3396      	adds	r3, #150	; 0x96
 800185c:	0018      	movs	r0, r3
 800185e:	f7fe fc53 	bl	8000108 <strlen>
 8001862:	0003      	movs	r3, r0
 8001864:	b29a      	uxth	r2, r3
 8001866:	193b      	adds	r3, r7, r4
 8001868:	3396      	adds	r3, #150	; 0x96
 800186a:	0019      	movs	r1, r3
 800186c:	4874      	ldr	r0, [pc, #464]	; (8001a40 <main+0x179c>)
 800186e:	2364      	movs	r3, #100	; 0x64
 8001870:	f001 ff64 	bl	800373c <HAL_UART_Transmit>
							  HAL_Delay(500);
 8001874:	23fa      	movs	r3, #250	; 0xfa
 8001876:	005b      	lsls	r3, r3, #1
 8001878:	0018      	movs	r0, r3
 800187a:	f000 fda3 	bl	80023c4 <HAL_Delay>
							  HAL_UART_Transmit(&huart2, (unsigned char *)at_command[AT_CSQ], strlen((const char *)at_command[AT_CSQ]), 100);
 800187e:	193b      	adds	r3, r7, r4
 8001880:	33c8      	adds	r3, #200	; 0xc8
 8001882:	0018      	movs	r0, r3
 8001884:	f7fe fc40 	bl	8000108 <strlen>
 8001888:	0003      	movs	r3, r0
 800188a:	b29a      	uxth	r2, r3
 800188c:	193b      	adds	r3, r7, r4
 800188e:	33c8      	adds	r3, #200	; 0xc8
 8001890:	0019      	movs	r1, r3
 8001892:	486b      	ldr	r0, [pc, #428]	; (8001a40 <main+0x179c>)
 8001894:	2364      	movs	r3, #100	; 0x64
 8001896:	f001 ff51 	bl	800373c <HAL_UART_Transmit>
							  HAL_Delay(500);
 800189a:	23fa      	movs	r3, #250	; 0xfa
 800189c:	005b      	lsls	r3, r3, #1
 800189e:	0018      	movs	r0, r3
 80018a0:	f000 fd90 	bl	80023c4 <HAL_Delay>
							  HAL_UART_Transmit(&huart2, (unsigned char *)at_command[AT_CSTT], strlen((const char *)at_command[AT_CSTT]), 100);
 80018a4:	193b      	adds	r3, r7, r4
 80018a6:	33fa      	adds	r3, #250	; 0xfa
 80018a8:	0018      	movs	r0, r3
 80018aa:	f7fe fc2d 	bl	8000108 <strlen>
 80018ae:	0003      	movs	r3, r0
 80018b0:	b29a      	uxth	r2, r3
 80018b2:	193b      	adds	r3, r7, r4
 80018b4:	33fa      	adds	r3, #250	; 0xfa
 80018b6:	0019      	movs	r1, r3
 80018b8:	4861      	ldr	r0, [pc, #388]	; (8001a40 <main+0x179c>)
 80018ba:	2364      	movs	r3, #100	; 0x64
 80018bc:	f001 ff3e 	bl	800373c <HAL_UART_Transmit>
							  HAL_Delay(500);
 80018c0:	23fa      	movs	r3, #250	; 0xfa
 80018c2:	005b      	lsls	r3, r3, #1
 80018c4:	0018      	movs	r0, r3
 80018c6:	f000 fd7d 	bl	80023c4 <HAL_Delay>
							  HAL_UART_Transmit(&huart2, (unsigned char *)at_command[AT_CIICR], strlen((const char *)at_command[AT_CIICR]), 100);
 80018ca:	193b      	adds	r3, r7, r4
 80018cc:	332d      	adds	r3, #45	; 0x2d
 80018ce:	33ff      	adds	r3, #255	; 0xff
 80018d0:	0018      	movs	r0, r3
 80018d2:	f7fe fc19 	bl	8000108 <strlen>
 80018d6:	0003      	movs	r3, r0
 80018d8:	b29a      	uxth	r2, r3
 80018da:	193b      	adds	r3, r7, r4
 80018dc:	332d      	adds	r3, #45	; 0x2d
 80018de:	33ff      	adds	r3, #255	; 0xff
 80018e0:	0019      	movs	r1, r3
 80018e2:	4857      	ldr	r0, [pc, #348]	; (8001a40 <main+0x179c>)
 80018e4:	2364      	movs	r3, #100	; 0x64
 80018e6:	f001 ff29 	bl	800373c <HAL_UART_Transmit>
							  HAL_Delay(5000);
 80018ea:	4b5c      	ldr	r3, [pc, #368]	; (8001a5c <main+0x17b8>)
 80018ec:	0018      	movs	r0, r3
 80018ee:	f000 fd69 	bl	80023c4 <HAL_Delay>
							  HAL_UART_Transmit(&huart2, (unsigned char *)at_command[AT_CIFSR], strlen((const char *)at_command[AT_CIFSR]), 100);
 80018f2:	193b      	adds	r3, r7, r4
 80018f4:	335f      	adds	r3, #95	; 0x5f
 80018f6:	33ff      	adds	r3, #255	; 0xff
 80018f8:	0018      	movs	r0, r3
 80018fa:	f7fe fc05 	bl	8000108 <strlen>
 80018fe:	0003      	movs	r3, r0
 8001900:	b29a      	uxth	r2, r3
 8001902:	193b      	adds	r3, r7, r4
 8001904:	335f      	adds	r3, #95	; 0x5f
 8001906:	33ff      	adds	r3, #255	; 0xff
 8001908:	0019      	movs	r1, r3
 800190a:	484d      	ldr	r0, [pc, #308]	; (8001a40 <main+0x179c>)
 800190c:	2364      	movs	r3, #100	; 0x64
 800190e:	f001 ff15 	bl	800373c <HAL_UART_Transmit>
							  HAL_Delay(5000);
 8001912:	4b52      	ldr	r3, [pc, #328]	; (8001a5c <main+0x17b8>)
 8001914:	0018      	movs	r0, r3
 8001916:	f000 fd55 	bl	80023c4 <HAL_Delay>
						  }
						  HAL_GPIO_TogglePin(LED_PC13_GPIO_Port, LED_PC13_Pin);
 800191a:	2380      	movs	r3, #128	; 0x80
 800191c:	019b      	lsls	r3, r3, #6
 800191e:	4a50      	ldr	r2, [pc, #320]	; (8001a60 <main+0x17bc>)
 8001920:	0019      	movs	r1, r3
 8001922:	0010      	movs	r0, r2
 8001924:	f001 f961 	bl	8002bea <HAL_GPIO_TogglePin>
						  HAL_Delay(500);
 8001928:	23fa      	movs	r3, #250	; 0xfa
 800192a:	005b      	lsls	r3, r3, #1
 800192c:	0018      	movs	r0, r3
 800192e:	f000 fd49 	bl	80023c4 <HAL_Delay>
					  while (ctrl_creg_loop == false)
 8001932:	4a48      	ldr	r2, [pc, #288]	; (8001a54 <main+0x17b0>)
 8001934:	18bb      	adds	r3, r7, r2
 8001936:	781b      	ldrb	r3, [r3, #0]
 8001938:	2b00      	cmp	r3, #0
 800193a:	d100      	bne.n	800193e <main+0x169a>
 800193c:	e6a7      	b.n	800168e <main+0x13ea>
					  }
					  ctrl_creg_loop = false;
 800193e:	18bb      	adds	r3, r7, r2
 8001940:	2200      	movs	r2, #0
 8001942:	701a      	strb	r2, [r3, #0]
					  //FIM VERIFICAO DE CONECTIVIDADE GPRS

					  HAL_UART_Transmit(&huart2, (unsigned char *)at_command[AT_CIPSTART], strlen((const char *)at_command[AT_CIPSTART]), 100);
 8001944:	2498      	movs	r4, #152	; 0x98
 8001946:	193b      	adds	r3, r7, r4
 8001948:	3391      	adds	r3, #145	; 0x91
 800194a:	33ff      	adds	r3, #255	; 0xff
 800194c:	0018      	movs	r0, r3
 800194e:	f7fe fbdb 	bl	8000108 <strlen>
 8001952:	0003      	movs	r3, r0
 8001954:	b29a      	uxth	r2, r3
 8001956:	193b      	adds	r3, r7, r4
 8001958:	3391      	adds	r3, #145	; 0x91
 800195a:	33ff      	adds	r3, #255	; 0xff
 800195c:	0019      	movs	r1, r3
 800195e:	4838      	ldr	r0, [pc, #224]	; (8001a40 <main+0x179c>)
 8001960:	2364      	movs	r3, #100	; 0x64
 8001962:	f001 feeb 	bl	800373c <HAL_UART_Transmit>
					  HAL_Delay(5000);
 8001966:	4b3d      	ldr	r3, [pc, #244]	; (8001a5c <main+0x17b8>)
 8001968:	0018      	movs	r0, r3
 800196a:	f000 fd2b 	bl	80023c4 <HAL_Delay>

					  HAL_UART_Transmit(&huart2, (unsigned char *)at_command[AT_CIPSEND], strlen((const char *)at_command[AT_CIPSEND]), 100);
 800196e:	193b      	adds	r3, r7, r4
 8001970:	33c3      	adds	r3, #195	; 0xc3
 8001972:	33ff      	adds	r3, #255	; 0xff
 8001974:	0018      	movs	r0, r3
 8001976:	f7fe fbc7 	bl	8000108 <strlen>
 800197a:	0003      	movs	r3, r0
 800197c:	b29a      	uxth	r2, r3
 800197e:	193b      	adds	r3, r7, r4
 8001980:	33c3      	adds	r3, #195	; 0xc3
 8001982:	33ff      	adds	r3, #255	; 0xff
 8001984:	0019      	movs	r1, r3
 8001986:	482e      	ldr	r0, [pc, #184]	; (8001a40 <main+0x179c>)
 8001988:	2364      	movs	r3, #100	; 0x64
 800198a:	f001 fed7 	bl	800373c <HAL_UART_Transmit>
					  HAL_Delay(2000);
 800198e:	23fa      	movs	r3, #250	; 0xfa
 8001990:	00db      	lsls	r3, r3, #3
 8001992:	0018      	movs	r0, r3
 8001994:	f000 fd16 	bl	80023c4 <HAL_Delay>

					  HAL_UART_Transmit(&huart2, (unsigned char *)mqtt_packt_msg, 36, 100);
 8001998:	2334      	movs	r3, #52	; 0x34
 800199a:	18f9      	adds	r1, r7, r3
 800199c:	4828      	ldr	r0, [pc, #160]	; (8001a40 <main+0x179c>)
 800199e:	2364      	movs	r3, #100	; 0x64
 80019a0:	2224      	movs	r2, #36	; 0x24
 80019a2:	f001 fecb 	bl	800373c <HAL_UART_Transmit>
					  HAL_UART_Transmit(&huart2, (unsigned char *)data_filter_uart1, 43, 100);
 80019a6:	23d0      	movs	r3, #208	; 0xd0
 80019a8:	009b      	lsls	r3, r3, #2
 80019aa:	18f9      	adds	r1, r7, r3
 80019ac:	4824      	ldr	r0, [pc, #144]	; (8001a40 <main+0x179c>)
 80019ae:	2364      	movs	r3, #100	; 0x64
 80019b0:	222b      	movs	r2, #43	; 0x2b
 80019b2:	f001 fec3 	bl	800373c <HAL_UART_Transmit>
					  HAL_UART_Transmit(&huart2, (unsigned char *)send_msg, strlen((const char *)send_msg), 100);
 80019b6:	25b0      	movs	r5, #176	; 0xb0
 80019b8:	00ad      	lsls	r5, r5, #2
 80019ba:	197b      	adds	r3, r7, r5
 80019bc:	0018      	movs	r0, r3
 80019be:	f7fe fba3 	bl	8000108 <strlen>
 80019c2:	0003      	movs	r3, r0
 80019c4:	b29a      	uxth	r2, r3
 80019c6:	1979      	adds	r1, r7, r5
 80019c8:	481d      	ldr	r0, [pc, #116]	; (8001a40 <main+0x179c>)
 80019ca:	2364      	movs	r3, #100	; 0x64
 80019cc:	f001 feb6 	bl	800373c <HAL_UART_Transmit>
					  HAL_Delay(5000);
 80019d0:	4b22      	ldr	r3, [pc, #136]	; (8001a5c <main+0x17b8>)
 80019d2:	0018      	movs	r0, r3
 80019d4:	f000 fcf6 	bl	80023c4 <HAL_Delay>

					  HAL_UART_Transmit(&huart2, (unsigned char *)at_command[AT_CIPCLOSE], strlen((const char *)at_command[AT_CIPCLOSE]), 100);
 80019d8:	193b      	adds	r3, r7, r4
 80019da:	33f5      	adds	r3, #245	; 0xf5
 80019dc:	33ff      	adds	r3, #255	; 0xff
 80019de:	0018      	movs	r0, r3
 80019e0:	f7fe fb92 	bl	8000108 <strlen>
 80019e4:	0003      	movs	r3, r0
 80019e6:	b29a      	uxth	r2, r3
 80019e8:	193b      	adds	r3, r7, r4
 80019ea:	33f5      	adds	r3, #245	; 0xf5
 80019ec:	33ff      	adds	r3, #255	; 0xff
 80019ee:	0019      	movs	r1, r3
 80019f0:	4813      	ldr	r0, [pc, #76]	; (8001a40 <main+0x179c>)
 80019f2:	2364      	movs	r3, #100	; 0x64
 80019f4:	f001 fea2 	bl	800373c <HAL_UART_Transmit>
					  HAL_Delay(5000);
 80019f8:	4b18      	ldr	r3, [pc, #96]	; (8001a5c <main+0x17b8>)
 80019fa:	0018      	movs	r0, r3
 80019fc:	f000 fce2 	bl	80023c4 <HAL_Delay>
				  if ((data_filter_uart1[6] == 0x2C) && (data_filter_uart1[17] == 0x2C) && ((data_filter_uart1[18] == 0x4E) || (data_filter_uart1[18] == 0x53))
 8001a00:	e1ce      	b.n	8001da0 <main+0x1afc>
			  else
			  {
				  //INCIO VERIFICAO DE CONECTIVIDADE GPRS
				  while (ctrl_creg_loop == false)
				  {
					  HAL_UART_Transmit(&huart2, (unsigned char *)at_command[AT_CREG], strlen((const char *)at_command[AT_CREG]), 100);
 8001a02:	2498      	movs	r4, #152	; 0x98
 8001a04:	193b      	adds	r3, r7, r4
 8001a06:	3396      	adds	r3, #150	; 0x96
 8001a08:	0018      	movs	r0, r3
 8001a0a:	f7fe fb7d 	bl	8000108 <strlen>
 8001a0e:	0003      	movs	r3, r0
 8001a10:	b29a      	uxth	r2, r3
 8001a12:	193b      	adds	r3, r7, r4
 8001a14:	3396      	adds	r3, #150	; 0x96
 8001a16:	0019      	movs	r1, r3
 8001a18:	4809      	ldr	r0, [pc, #36]	; (8001a40 <main+0x179c>)
 8001a1a:	2364      	movs	r3, #100	; 0x64
 8001a1c:	f001 fe8e 	bl	800373c <HAL_UART_Transmit>
					  HAL_Delay(500);
 8001a20:	23fa      	movs	r3, #250	; 0xfa
 8001a22:	005b      	lsls	r3, r3, #1
 8001a24:	0018      	movs	r0, r3
 8001a26:	f000 fccd 	bl	80023c4 <HAL_Delay>
					  if (ctrl_uart2 == true)
 8001a2a:	4b06      	ldr	r3, [pc, #24]	; (8001a44 <main+0x17a0>)
 8001a2c:	781b      	ldrb	r3, [r3, #0]
 8001a2e:	2b01      	cmp	r3, #1
 8001a30:	d000      	beq.n	8001a34 <main+0x1790>
 8001a32:	e06d      	b.n	8001b10 <main+0x186c>
					  {
						  for (uint8_t a = 0; a<=60; a++)
 8001a34:	4b0b      	ldr	r3, [pc, #44]	; (8001a64 <main+0x17c0>)
 8001a36:	18fb      	adds	r3, r7, r3
 8001a38:	2200      	movs	r2, #0
 8001a3a:	701a      	strb	r2, [r3, #0]
 8001a3c:	e063      	b.n	8001b06 <main+0x1862>
 8001a3e:	46c0      	nop			; (mov r8, r8)
 8001a40:	200000ac 	.word	0x200000ac
 8001a44:	20000346 	.word	0x20000346
 8001a48:	20000308 	.word	0x20000308
 8001a4c:	000003a7 	.word	0x000003a7
 8001a50:	20000028 	.word	0x20000028
 8001a54:	000003af 	.word	0x000003af
 8001a58:	00007530 	.word	0x00007530
 8001a5c:	00001388 	.word	0x00001388
 8001a60:	48000800 	.word	0x48000800
 8001a64:	000003a6 	.word	0x000003a6
						  {
							  if ((data_in_uart2[a] == 0x2B) && (data_in_uart2[a+1] == 0x43) && (data_in_uart2[a+2] == 0x52) && (data_in_uart2[a+3] == 0x45)
 8001a68:	49d0      	ldr	r1, [pc, #832]	; (8001dac <main+0x1b08>)
 8001a6a:	187b      	adds	r3, r7, r1
 8001a6c:	781b      	ldrb	r3, [r3, #0]
 8001a6e:	4ad0      	ldr	r2, [pc, #832]	; (8001db0 <main+0x1b0c>)
 8001a70:	5cd3      	ldrb	r3, [r2, r3]
 8001a72:	2b2b      	cmp	r3, #43	; 0x2b
 8001a74:	d141      	bne.n	8001afa <main+0x1856>
 8001a76:	187b      	adds	r3, r7, r1
 8001a78:	781b      	ldrb	r3, [r3, #0]
 8001a7a:	3301      	adds	r3, #1
 8001a7c:	4acc      	ldr	r2, [pc, #816]	; (8001db0 <main+0x1b0c>)
 8001a7e:	5cd3      	ldrb	r3, [r2, r3]
 8001a80:	2b43      	cmp	r3, #67	; 0x43
 8001a82:	d13a      	bne.n	8001afa <main+0x1856>
 8001a84:	187b      	adds	r3, r7, r1
 8001a86:	781b      	ldrb	r3, [r3, #0]
 8001a88:	3302      	adds	r3, #2
 8001a8a:	4ac9      	ldr	r2, [pc, #804]	; (8001db0 <main+0x1b0c>)
 8001a8c:	5cd3      	ldrb	r3, [r2, r3]
 8001a8e:	2b52      	cmp	r3, #82	; 0x52
 8001a90:	d133      	bne.n	8001afa <main+0x1856>
 8001a92:	187b      	adds	r3, r7, r1
 8001a94:	781b      	ldrb	r3, [r3, #0]
 8001a96:	3303      	adds	r3, #3
 8001a98:	4ac5      	ldr	r2, [pc, #788]	; (8001db0 <main+0x1b0c>)
 8001a9a:	5cd3      	ldrb	r3, [r2, r3]
 8001a9c:	2b45      	cmp	r3, #69	; 0x45
 8001a9e:	d12c      	bne.n	8001afa <main+0x1856>
									  && (data_in_uart2[a+4] == 0x47) && (data_in_uart2[a+5] == 0x3A))//filtrar dados +CREG:
 8001aa0:	187b      	adds	r3, r7, r1
 8001aa2:	781b      	ldrb	r3, [r3, #0]
 8001aa4:	3304      	adds	r3, #4
 8001aa6:	4ac2      	ldr	r2, [pc, #776]	; (8001db0 <main+0x1b0c>)
 8001aa8:	5cd3      	ldrb	r3, [r2, r3]
 8001aaa:	2b47      	cmp	r3, #71	; 0x47
 8001aac:	d125      	bne.n	8001afa <main+0x1856>
 8001aae:	187b      	adds	r3, r7, r1
 8001ab0:	781b      	ldrb	r3, [r3, #0]
 8001ab2:	3305      	adds	r3, #5
 8001ab4:	4abe      	ldr	r2, [pc, #760]	; (8001db0 <main+0x1b0c>)
 8001ab6:	5cd3      	ldrb	r3, [r2, r3]
 8001ab8:	2b3a      	cmp	r3, #58	; 0x3a
 8001aba:	d11e      	bne.n	8001afa <main+0x1856>
				  			  {
								  for(uint8_t b = 0; b<=10; b++)
 8001abc:	4bbd      	ldr	r3, [pc, #756]	; (8001db4 <main+0x1b10>)
 8001abe:	18fb      	adds	r3, r7, r3
 8001ac0:	2200      	movs	r2, #0
 8001ac2:	701a      	strb	r2, [r3, #0]
 8001ac4:	e013      	b.n	8001aee <main+0x184a>
								  {
									  data_filter_uart2[b] = data_in_uart2[a+b];
 8001ac6:	4bb9      	ldr	r3, [pc, #740]	; (8001dac <main+0x1b08>)
 8001ac8:	18fb      	adds	r3, r7, r3
 8001aca:	781a      	ldrb	r2, [r3, #0]
 8001acc:	48b9      	ldr	r0, [pc, #740]	; (8001db4 <main+0x1b10>)
 8001ace:	183b      	adds	r3, r7, r0
 8001ad0:	781b      	ldrb	r3, [r3, #0]
 8001ad2:	18d2      	adds	r2, r2, r3
 8001ad4:	183b      	adds	r3, r7, r0
 8001ad6:	781b      	ldrb	r3, [r3, #0]
 8001ad8:	49b5      	ldr	r1, [pc, #724]	; (8001db0 <main+0x1b0c>)
 8001ada:	5c89      	ldrb	r1, [r1, r2]
 8001adc:	22b7      	movs	r2, #183	; 0xb7
 8001ade:	0092      	lsls	r2, r2, #2
 8001ae0:	18ba      	adds	r2, r7, r2
 8001ae2:	54d1      	strb	r1, [r2, r3]
								  for(uint8_t b = 0; b<=10; b++)
 8001ae4:	183b      	adds	r3, r7, r0
 8001ae6:	781a      	ldrb	r2, [r3, #0]
 8001ae8:	183b      	adds	r3, r7, r0
 8001aea:	3201      	adds	r2, #1
 8001aec:	701a      	strb	r2, [r3, #0]
 8001aee:	4bb1      	ldr	r3, [pc, #708]	; (8001db4 <main+0x1b10>)
 8001af0:	18fb      	adds	r3, r7, r3
 8001af2:	781b      	ldrb	r3, [r3, #0]
 8001af4:	2b0a      	cmp	r3, #10
 8001af6:	d9e6      	bls.n	8001ac6 <main+0x1822>
								  }
								  break;
 8001af8:	e00a      	b.n	8001b10 <main+0x186c>
						  for (uint8_t a = 0; a<=60; a++)
 8001afa:	49ac      	ldr	r1, [pc, #688]	; (8001dac <main+0x1b08>)
 8001afc:	187b      	adds	r3, r7, r1
 8001afe:	781a      	ldrb	r2, [r3, #0]
 8001b00:	187b      	adds	r3, r7, r1
 8001b02:	3201      	adds	r2, #1
 8001b04:	701a      	strb	r2, [r3, #0]
 8001b06:	4ba9      	ldr	r3, [pc, #676]	; (8001dac <main+0x1b08>)
 8001b08:	18fb      	adds	r3, r7, r3
 8001b0a:	781b      	ldrb	r3, [r3, #0]
 8001b0c:	2b3c      	cmp	r3, #60	; 0x3c
 8001b0e:	d9ab      	bls.n	8001a68 <main+0x17c4>
				  			  }
						  }
					  }
					  if ((data_filter_uart2[9] == 0x31) || (data_filter_uart2[9] == 0x35))
 8001b10:	22b7      	movs	r2, #183	; 0xb7
 8001b12:	0092      	lsls	r2, r2, #2
 8001b14:	18bb      	adds	r3, r7, r2
 8001b16:	7a5b      	ldrb	r3, [r3, #9]
 8001b18:	2b31      	cmp	r3, #49	; 0x31
 8001b1a:	d003      	beq.n	8001b24 <main+0x1880>
 8001b1c:	18bb      	adds	r3, r7, r2
 8001b1e:	7a5b      	ldrb	r3, [r3, #9]
 8001b20:	2b35      	cmp	r3, #53	; 0x35
 8001b22:	d10c      	bne.n	8001b3e <main+0x189a>
					  {
						  HAL_UART_Transmit(&huart1, (unsigned char *)data_filter_uart2, 10, 100);
 8001b24:	23b7      	movs	r3, #183	; 0xb7
 8001b26:	009b      	lsls	r3, r3, #2
 8001b28:	18f9      	adds	r1, r7, r3
 8001b2a:	48a3      	ldr	r0, [pc, #652]	; (8001db8 <main+0x1b14>)
 8001b2c:	2364      	movs	r3, #100	; 0x64
 8001b2e:	220a      	movs	r2, #10
 8001b30:	f001 fe04 	bl	800373c <HAL_UART_Transmit>
						  ctrl_creg_loop = true;
 8001b34:	4ba1      	ldr	r3, [pc, #644]	; (8001dbc <main+0x1b18>)
 8001b36:	18fb      	adds	r3, r7, r3
 8001b38:	2201      	movs	r2, #1
 8001b3a:	701a      	strb	r2, [r3, #0]
 8001b3c:	e0b8      	b.n	8001cb0 <main+0x1a0c>
					  }
					  else
					  {
						  HAL_UART_Transmit(&huart1, (unsigned char *)data_filter_uart2, 10, 100);
 8001b3e:	23b7      	movs	r3, #183	; 0xb7
 8001b40:	009b      	lsls	r3, r3, #2
 8001b42:	18f9      	adds	r1, r7, r3
 8001b44:	489c      	ldr	r0, [pc, #624]	; (8001db8 <main+0x1b14>)
 8001b46:	2364      	movs	r3, #100	; 0x64
 8001b48:	220a      	movs	r2, #10
 8001b4a:	f001 fdf7 	bl	800373c <HAL_UART_Transmit>
						  //reset SIM800L
						  HAL_GPIO_WritePin(RESET_SIM800l_GPIO_Port, RESET_SIM800l_Pin, GPIO_PIN_RESET);
 8001b4e:	2380      	movs	r3, #128	; 0x80
 8001b50:	0219      	lsls	r1, r3, #8
 8001b52:	2390      	movs	r3, #144	; 0x90
 8001b54:	05db      	lsls	r3, r3, #23
 8001b56:	2200      	movs	r2, #0
 8001b58:	0018      	movs	r0, r3
 8001b5a:	f001 f829 	bl	8002bb0 <HAL_GPIO_WritePin>
						  HAL_Delay(1000);
 8001b5e:	23fa      	movs	r3, #250	; 0xfa
 8001b60:	009b      	lsls	r3, r3, #2
 8001b62:	0018      	movs	r0, r3
 8001b64:	f000 fc2e 	bl	80023c4 <HAL_Delay>
						  HAL_GPIO_WritePin(RESET_SIM800l_GPIO_Port, RESET_SIM800l_Pin, GPIO_PIN_SET);
 8001b68:	2380      	movs	r3, #128	; 0x80
 8001b6a:	0219      	lsls	r1, r3, #8
 8001b6c:	2390      	movs	r3, #144	; 0x90
 8001b6e:	05db      	lsls	r3, r3, #23
 8001b70:	2201      	movs	r2, #1
 8001b72:	0018      	movs	r0, r3
 8001b74:	f001 f81c 	bl	8002bb0 <HAL_GPIO_WritePin>
						  HAL_Delay(30000);
 8001b78:	4b91      	ldr	r3, [pc, #580]	; (8001dc0 <main+0x1b1c>)
 8001b7a:	0018      	movs	r0, r3
 8001b7c:	f000 fc22 	bl	80023c4 <HAL_Delay>

						  HAL_UART_Transmit(&huart2, (unsigned char *)at_command[AT], strlen((const char *)at_command[AT]), 100);
 8001b80:	2498      	movs	r4, #152	; 0x98
 8001b82:	193b      	adds	r3, r7, r4
 8001b84:	0018      	movs	r0, r3
 8001b86:	f7fe fabf 	bl	8000108 <strlen>
 8001b8a:	0003      	movs	r3, r0
 8001b8c:	b29a      	uxth	r2, r3
 8001b8e:	1939      	adds	r1, r7, r4
 8001b90:	488c      	ldr	r0, [pc, #560]	; (8001dc4 <main+0x1b20>)
 8001b92:	2364      	movs	r3, #100	; 0x64
 8001b94:	f001 fdd2 	bl	800373c <HAL_UART_Transmit>
						  HAL_Delay(500);
 8001b98:	23fa      	movs	r3, #250	; 0xfa
 8001b9a:	005b      	lsls	r3, r3, #1
 8001b9c:	0018      	movs	r0, r3
 8001b9e:	f000 fc11 	bl	80023c4 <HAL_Delay>
						  HAL_UART_Transmit(&huart2, (unsigned char *)at_command[AT_CFUN], strlen((const char *)at_command[AT_CFUN]), 100);
 8001ba2:	193b      	adds	r3, r7, r4
 8001ba4:	3332      	adds	r3, #50	; 0x32
 8001ba6:	0018      	movs	r0, r3
 8001ba8:	f7fe faae 	bl	8000108 <strlen>
 8001bac:	0003      	movs	r3, r0
 8001bae:	b29a      	uxth	r2, r3
 8001bb0:	193b      	adds	r3, r7, r4
 8001bb2:	3332      	adds	r3, #50	; 0x32
 8001bb4:	0019      	movs	r1, r3
 8001bb6:	4883      	ldr	r0, [pc, #524]	; (8001dc4 <main+0x1b20>)
 8001bb8:	2364      	movs	r3, #100	; 0x64
 8001bba:	f001 fdbf 	bl	800373c <HAL_UART_Transmit>
						  HAL_Delay(500);
 8001bbe:	23fa      	movs	r3, #250	; 0xfa
 8001bc0:	005b      	lsls	r3, r3, #1
 8001bc2:	0018      	movs	r0, r3
 8001bc4:	f000 fbfe 	bl	80023c4 <HAL_Delay>
						  HAL_UART_Transmit(&huart2, (unsigned char *)at_command[AT_CPIN], strlen((const char *)at_command[AT_CPIN]), 100);
 8001bc8:	193b      	adds	r3, r7, r4
 8001bca:	3364      	adds	r3, #100	; 0x64
 8001bcc:	0018      	movs	r0, r3
 8001bce:	f7fe fa9b 	bl	8000108 <strlen>
 8001bd2:	0003      	movs	r3, r0
 8001bd4:	b29a      	uxth	r2, r3
 8001bd6:	193b      	adds	r3, r7, r4
 8001bd8:	3364      	adds	r3, #100	; 0x64
 8001bda:	0019      	movs	r1, r3
 8001bdc:	4879      	ldr	r0, [pc, #484]	; (8001dc4 <main+0x1b20>)
 8001bde:	2364      	movs	r3, #100	; 0x64
 8001be0:	f001 fdac 	bl	800373c <HAL_UART_Transmit>
						  HAL_Delay(500);
 8001be4:	23fa      	movs	r3, #250	; 0xfa
 8001be6:	005b      	lsls	r3, r3, #1
 8001be8:	0018      	movs	r0, r3
 8001bea:	f000 fbeb 	bl	80023c4 <HAL_Delay>
						  HAL_UART_Transmit(&huart2, (unsigned char *)at_command[AT_CREG], strlen((const char *)at_command[AT_CREG]), 100);
 8001bee:	193b      	adds	r3, r7, r4
 8001bf0:	3396      	adds	r3, #150	; 0x96
 8001bf2:	0018      	movs	r0, r3
 8001bf4:	f7fe fa88 	bl	8000108 <strlen>
 8001bf8:	0003      	movs	r3, r0
 8001bfa:	b29a      	uxth	r2, r3
 8001bfc:	193b      	adds	r3, r7, r4
 8001bfe:	3396      	adds	r3, #150	; 0x96
 8001c00:	0019      	movs	r1, r3
 8001c02:	4870      	ldr	r0, [pc, #448]	; (8001dc4 <main+0x1b20>)
 8001c04:	2364      	movs	r3, #100	; 0x64
 8001c06:	f001 fd99 	bl	800373c <HAL_UART_Transmit>
						  HAL_Delay(500);
 8001c0a:	23fa      	movs	r3, #250	; 0xfa
 8001c0c:	005b      	lsls	r3, r3, #1
 8001c0e:	0018      	movs	r0, r3
 8001c10:	f000 fbd8 	bl	80023c4 <HAL_Delay>
						  HAL_UART_Transmit(&huart2, (unsigned char *)at_command[AT_CSQ], strlen((const char *)at_command[AT_CSQ]), 100);
 8001c14:	193b      	adds	r3, r7, r4
 8001c16:	33c8      	adds	r3, #200	; 0xc8
 8001c18:	0018      	movs	r0, r3
 8001c1a:	f7fe fa75 	bl	8000108 <strlen>
 8001c1e:	0003      	movs	r3, r0
 8001c20:	b29a      	uxth	r2, r3
 8001c22:	193b      	adds	r3, r7, r4
 8001c24:	33c8      	adds	r3, #200	; 0xc8
 8001c26:	0019      	movs	r1, r3
 8001c28:	4866      	ldr	r0, [pc, #408]	; (8001dc4 <main+0x1b20>)
 8001c2a:	2364      	movs	r3, #100	; 0x64
 8001c2c:	f001 fd86 	bl	800373c <HAL_UART_Transmit>
						  HAL_Delay(500);
 8001c30:	23fa      	movs	r3, #250	; 0xfa
 8001c32:	005b      	lsls	r3, r3, #1
 8001c34:	0018      	movs	r0, r3
 8001c36:	f000 fbc5 	bl	80023c4 <HAL_Delay>
						  HAL_UART_Transmit(&huart2, (unsigned char *)at_command[AT_CSTT], strlen((const char *)at_command[AT_CSTT]), 100);
 8001c3a:	193b      	adds	r3, r7, r4
 8001c3c:	33fa      	adds	r3, #250	; 0xfa
 8001c3e:	0018      	movs	r0, r3
 8001c40:	f7fe fa62 	bl	8000108 <strlen>
 8001c44:	0003      	movs	r3, r0
 8001c46:	b29a      	uxth	r2, r3
 8001c48:	193b      	adds	r3, r7, r4
 8001c4a:	33fa      	adds	r3, #250	; 0xfa
 8001c4c:	0019      	movs	r1, r3
 8001c4e:	485d      	ldr	r0, [pc, #372]	; (8001dc4 <main+0x1b20>)
 8001c50:	2364      	movs	r3, #100	; 0x64
 8001c52:	f001 fd73 	bl	800373c <HAL_UART_Transmit>
						  HAL_Delay(500);
 8001c56:	23fa      	movs	r3, #250	; 0xfa
 8001c58:	005b      	lsls	r3, r3, #1
 8001c5a:	0018      	movs	r0, r3
 8001c5c:	f000 fbb2 	bl	80023c4 <HAL_Delay>
						  HAL_UART_Transmit(&huart2, (unsigned char *)at_command[AT_CIICR], strlen((const char *)at_command[AT_CIICR]), 100);
 8001c60:	193b      	adds	r3, r7, r4
 8001c62:	332d      	adds	r3, #45	; 0x2d
 8001c64:	33ff      	adds	r3, #255	; 0xff
 8001c66:	0018      	movs	r0, r3
 8001c68:	f7fe fa4e 	bl	8000108 <strlen>
 8001c6c:	0003      	movs	r3, r0
 8001c6e:	b29a      	uxth	r2, r3
 8001c70:	193b      	adds	r3, r7, r4
 8001c72:	332d      	adds	r3, #45	; 0x2d
 8001c74:	33ff      	adds	r3, #255	; 0xff
 8001c76:	0019      	movs	r1, r3
 8001c78:	4852      	ldr	r0, [pc, #328]	; (8001dc4 <main+0x1b20>)
 8001c7a:	2364      	movs	r3, #100	; 0x64
 8001c7c:	f001 fd5e 	bl	800373c <HAL_UART_Transmit>
						  HAL_Delay(5000);
 8001c80:	4b51      	ldr	r3, [pc, #324]	; (8001dc8 <main+0x1b24>)
 8001c82:	0018      	movs	r0, r3
 8001c84:	f000 fb9e 	bl	80023c4 <HAL_Delay>
						  HAL_UART_Transmit(&huart2, (unsigned char *)at_command[AT_CIFSR], strlen((const char *)at_command[AT_CIFSR]), 100);
 8001c88:	193b      	adds	r3, r7, r4
 8001c8a:	335f      	adds	r3, #95	; 0x5f
 8001c8c:	33ff      	adds	r3, #255	; 0xff
 8001c8e:	0018      	movs	r0, r3
 8001c90:	f7fe fa3a 	bl	8000108 <strlen>
 8001c94:	0003      	movs	r3, r0
 8001c96:	b29a      	uxth	r2, r3
 8001c98:	193b      	adds	r3, r7, r4
 8001c9a:	335f      	adds	r3, #95	; 0x5f
 8001c9c:	33ff      	adds	r3, #255	; 0xff
 8001c9e:	0019      	movs	r1, r3
 8001ca0:	4848      	ldr	r0, [pc, #288]	; (8001dc4 <main+0x1b20>)
 8001ca2:	2364      	movs	r3, #100	; 0x64
 8001ca4:	f001 fd4a 	bl	800373c <HAL_UART_Transmit>
						  HAL_Delay(5000);
 8001ca8:	4b47      	ldr	r3, [pc, #284]	; (8001dc8 <main+0x1b24>)
 8001caa:	0018      	movs	r0, r3
 8001cac:	f000 fb8a 	bl	80023c4 <HAL_Delay>
					  }
	  			  	  HAL_GPIO_TogglePin(LED_PC13_GPIO_Port, LED_PC13_Pin);
 8001cb0:	2380      	movs	r3, #128	; 0x80
 8001cb2:	019b      	lsls	r3, r3, #6
 8001cb4:	4a45      	ldr	r2, [pc, #276]	; (8001dcc <main+0x1b28>)
 8001cb6:	0019      	movs	r1, r3
 8001cb8:	0010      	movs	r0, r2
 8001cba:	f000 ff96 	bl	8002bea <HAL_GPIO_TogglePin>
	  			  	  HAL_Delay(500);
 8001cbe:	23fa      	movs	r3, #250	; 0xfa
 8001cc0:	005b      	lsls	r3, r3, #1
 8001cc2:	0018      	movs	r0, r3
 8001cc4:	f000 fb7e 	bl	80023c4 <HAL_Delay>
				  while (ctrl_creg_loop == false)
 8001cc8:	4a3c      	ldr	r2, [pc, #240]	; (8001dbc <main+0x1b18>)
 8001cca:	18bb      	adds	r3, r7, r2
 8001ccc:	781b      	ldrb	r3, [r3, #0]
 8001cce:	2b00      	cmp	r3, #0
 8001cd0:	d100      	bne.n	8001cd4 <main+0x1a30>
 8001cd2:	e696      	b.n	8001a02 <main+0x175e>
				  }
				  ctrl_creg_loop = false;
 8001cd4:	18bb      	adds	r3, r7, r2
 8001cd6:	2200      	movs	r2, #0
 8001cd8:	701a      	strb	r2, [r3, #0]
				  //FIM VERIFICAO DE CONECTIVIDADE GPRS


				  HAL_UART_Transmit(&huart2, (unsigned char *)at_command[AT_CIPSTART], strlen((const char *)at_command[AT_CIPSTART]), 100);
 8001cda:	2498      	movs	r4, #152	; 0x98
 8001cdc:	193b      	adds	r3, r7, r4
 8001cde:	3391      	adds	r3, #145	; 0x91
 8001ce0:	33ff      	adds	r3, #255	; 0xff
 8001ce2:	0018      	movs	r0, r3
 8001ce4:	f7fe fa10 	bl	8000108 <strlen>
 8001ce8:	0003      	movs	r3, r0
 8001cea:	b29a      	uxth	r2, r3
 8001cec:	193b      	adds	r3, r7, r4
 8001cee:	3391      	adds	r3, #145	; 0x91
 8001cf0:	33ff      	adds	r3, #255	; 0xff
 8001cf2:	0019      	movs	r1, r3
 8001cf4:	4833      	ldr	r0, [pc, #204]	; (8001dc4 <main+0x1b20>)
 8001cf6:	2364      	movs	r3, #100	; 0x64
 8001cf8:	f001 fd20 	bl	800373c <HAL_UART_Transmit>
				  HAL_Delay(5000);
 8001cfc:	4b32      	ldr	r3, [pc, #200]	; (8001dc8 <main+0x1b24>)
 8001cfe:	0018      	movs	r0, r3
 8001d00:	f000 fb60 	bl	80023c4 <HAL_Delay>

				  HAL_UART_Transmit(&huart2, (unsigned char *)at_command[AT_CIPSEND], strlen((const char *)at_command[AT_CIPSEND]), 100);
 8001d04:	193b      	adds	r3, r7, r4
 8001d06:	33c3      	adds	r3, #195	; 0xc3
 8001d08:	33ff      	adds	r3, #255	; 0xff
 8001d0a:	0018      	movs	r0, r3
 8001d0c:	f7fe f9fc 	bl	8000108 <strlen>
 8001d10:	0003      	movs	r3, r0
 8001d12:	b29a      	uxth	r2, r3
 8001d14:	193b      	adds	r3, r7, r4
 8001d16:	33c3      	adds	r3, #195	; 0xc3
 8001d18:	33ff      	adds	r3, #255	; 0xff
 8001d1a:	0019      	movs	r1, r3
 8001d1c:	4829      	ldr	r0, [pc, #164]	; (8001dc4 <main+0x1b20>)
 8001d1e:	2364      	movs	r3, #100	; 0x64
 8001d20:	f001 fd0c 	bl	800373c <HAL_UART_Transmit>
				  HAL_Delay(2000);
 8001d24:	23fa      	movs	r3, #250	; 0xfa
 8001d26:	00db      	lsls	r3, r3, #3
 8001d28:	0018      	movs	r0, r3
 8001d2a:	f000 fb4b 	bl	80023c4 <HAL_Delay>
	  			  HAL_UART_Transmit(&huart2, (unsigned char *)mqtt_packt_error, 36, 100);
 8001d2e:	0039      	movs	r1, r7
 8001d30:	4824      	ldr	r0, [pc, #144]	; (8001dc4 <main+0x1b20>)
 8001d32:	2364      	movs	r3, #100	; 0x64
 8001d34:	2224      	movs	r2, #36	; 0x24
 8001d36:	f001 fd01 	bl	800373c <HAL_UART_Transmit>

				  HAL_UART_Transmit(&huart2, (unsigned char *)error_msg_ID, strlen((const char *)error_msg_ID), 100);
 8001d3a:	25b3      	movs	r5, #179	; 0xb3
 8001d3c:	00ad      	lsls	r5, r5, #2
 8001d3e:	197b      	adds	r3, r7, r5
 8001d40:	0018      	movs	r0, r3
 8001d42:	f7fe f9e1 	bl	8000108 <strlen>
 8001d46:	0003      	movs	r3, r0
 8001d48:	b29a      	uxth	r2, r3
 8001d4a:	1979      	adds	r1, r7, r5
 8001d4c:	481d      	ldr	r0, [pc, #116]	; (8001dc4 <main+0x1b20>)
 8001d4e:	2364      	movs	r3, #100	; 0x64
 8001d50:	f001 fcf4 	bl	800373c <HAL_UART_Transmit>
				  HAL_UART_Transmit(&huart2, (unsigned char *)send_msg, strlen((const char *)send_msg), 100);
 8001d54:	25b0      	movs	r5, #176	; 0xb0
 8001d56:	00ad      	lsls	r5, r5, #2
 8001d58:	197b      	adds	r3, r7, r5
 8001d5a:	0018      	movs	r0, r3
 8001d5c:	f7fe f9d4 	bl	8000108 <strlen>
 8001d60:	0003      	movs	r3, r0
 8001d62:	b29a      	uxth	r2, r3
 8001d64:	1979      	adds	r1, r7, r5
 8001d66:	4817      	ldr	r0, [pc, #92]	; (8001dc4 <main+0x1b20>)
 8001d68:	2364      	movs	r3, #100	; 0x64
 8001d6a:	f001 fce7 	bl	800373c <HAL_UART_Transmit>
				  HAL_Delay(5000);
 8001d6e:	4b16      	ldr	r3, [pc, #88]	; (8001dc8 <main+0x1b24>)
 8001d70:	0018      	movs	r0, r3
 8001d72:	f000 fb27 	bl	80023c4 <HAL_Delay>

				  HAL_UART_Transmit(&huart2, (unsigned char *)at_command[AT_CIPCLOSE], strlen((const char *)at_command[AT_CIPCLOSE]), 100);
 8001d76:	193b      	adds	r3, r7, r4
 8001d78:	33f5      	adds	r3, #245	; 0xf5
 8001d7a:	33ff      	adds	r3, #255	; 0xff
 8001d7c:	0018      	movs	r0, r3
 8001d7e:	f7fe f9c3 	bl	8000108 <strlen>
 8001d82:	0003      	movs	r3, r0
 8001d84:	b29a      	uxth	r2, r3
 8001d86:	193b      	adds	r3, r7, r4
 8001d88:	33f5      	adds	r3, #245	; 0xf5
 8001d8a:	33ff      	adds	r3, #255	; 0xff
 8001d8c:	0019      	movs	r1, r3
 8001d8e:	480d      	ldr	r0, [pc, #52]	; (8001dc4 <main+0x1b20>)
 8001d90:	2364      	movs	r3, #100	; 0x64
 8001d92:	f001 fcd3 	bl	800373c <HAL_UART_Transmit>
				  HAL_Delay(5000);
 8001d96:	4b0c      	ldr	r3, [pc, #48]	; (8001dc8 <main+0x1b24>)
 8001d98:	0018      	movs	r0, r3
 8001d9a:	f000 fb13 	bl	80023c4 <HAL_Delay>
 8001d9e:	e000      	b.n	8001da2 <main+0x1afe>
				  if ((data_filter_uart1[6] == 0x2C) && (data_filter_uart1[17] == 0x2C) && ((data_filter_uart1[18] == 0x4E) || (data_filter_uart1[18] == 0x53))
 8001da0:	46c0      	nop			; (mov r8, r8)
			  }
		  }
		  ctrl_uart1 = false;
 8001da2:	4b0b      	ldr	r3, [pc, #44]	; (8001dd0 <main+0x1b2c>)
 8001da4:	2200      	movs	r2, #0
 8001da6:	701a      	strb	r2, [r3, #0]
	  if (ctrl_uart1 == true)
 8001da8:	f7ff f9f2 	bl	8001190 <main+0xeec>
 8001dac:	000003a6 	.word	0x000003a6
 8001db0:	20000308 	.word	0x20000308
 8001db4:	000003a5 	.word	0x000003a5
 8001db8:	20000028 	.word	0x20000028
 8001dbc:	000003af 	.word	0x000003af
 8001dc0:	00007530 	.word	0x00007530
 8001dc4:	200000ac 	.word	0x200000ac
 8001dc8:	00001388 	.word	0x00001388
 8001dcc:	48000800 	.word	0x48000800
 8001dd0:	20000345 	.word	0x20000345

08001dd4 <SystemClock_Config>:
/**
  * @brief System Clock Configuration
  * @retval None
  */
void SystemClock_Config(void)
{
 8001dd4:	b590      	push	{r4, r7, lr}
 8001dd6:	b095      	sub	sp, #84	; 0x54
 8001dd8:	af00      	add	r7, sp, #0
  RCC_OscInitTypeDef RCC_OscInitStruct = {0};
 8001dda:	2420      	movs	r4, #32
 8001ddc:	193b      	adds	r3, r7, r4
 8001dde:	0018      	movs	r0, r3
 8001de0:	2330      	movs	r3, #48	; 0x30
 8001de2:	001a      	movs	r2, r3
 8001de4:	2100      	movs	r1, #0
 8001de6:	f002 fe5b 	bl	8004aa0 <memset>
  RCC_ClkInitTypeDef RCC_ClkInitStruct = {0};
 8001dea:	2310      	movs	r3, #16
 8001dec:	18fb      	adds	r3, r7, r3
 8001dee:	0018      	movs	r0, r3
 8001df0:	2310      	movs	r3, #16
 8001df2:	001a      	movs	r2, r3
 8001df4:	2100      	movs	r1, #0
 8001df6:	f002 fe53 	bl	8004aa0 <memset>
  RCC_PeriphCLKInitTypeDef PeriphClkInit = {0};
 8001dfa:	003b      	movs	r3, r7
 8001dfc:	0018      	movs	r0, r3
 8001dfe:	2310      	movs	r3, #16
 8001e00:	001a      	movs	r2, r3
 8001e02:	2100      	movs	r1, #0
 8001e04:	f002 fe4c 	bl	8004aa0 <memset>

  /** Initializes the RCC Oscillators according to the specified parameters
  * in the RCC_OscInitTypeDef structure.
  */
  RCC_OscInitStruct.OscillatorType = RCC_OSCILLATORTYPE_HSI;
 8001e08:	0021      	movs	r1, r4
 8001e0a:	187b      	adds	r3, r7, r1
 8001e0c:	2202      	movs	r2, #2
 8001e0e:	601a      	str	r2, [r3, #0]
  RCC_OscInitStruct.HSIState = RCC_HSI_ON;
 8001e10:	187b      	adds	r3, r7, r1
 8001e12:	2201      	movs	r2, #1
 8001e14:	60da      	str	r2, [r3, #12]
  RCC_OscInitStruct.HSICalibrationValue = RCC_HSICALIBRATION_DEFAULT;
 8001e16:	187b      	adds	r3, r7, r1
 8001e18:	2210      	movs	r2, #16
 8001e1a:	611a      	str	r2, [r3, #16]
  RCC_OscInitStruct.PLL.PLLState = RCC_PLL_NONE;
 8001e1c:	187b      	adds	r3, r7, r1
 8001e1e:	2200      	movs	r2, #0
 8001e20:	621a      	str	r2, [r3, #32]
  if (HAL_RCC_OscConfig(&RCC_OscInitStruct) != HAL_OK)
 8001e22:	187b      	adds	r3, r7, r1
 8001e24:	0018      	movs	r0, r3
 8001e26:	f000 fefb 	bl	8002c20 <HAL_RCC_OscConfig>
 8001e2a:	1e03      	subs	r3, r0, #0
 8001e2c:	d001      	beq.n	8001e32 <SystemClock_Config+0x5e>
  {
    Error_Handler();
 8001e2e:	f000 f90d 	bl	800204c <Error_Handler>
  }
  /** Initializes the CPU, AHB and APB buses clocks
  */
  RCC_ClkInitStruct.ClockType = RCC_CLOCKTYPE_HCLK|RCC_CLOCKTYPE_SYSCLK
 8001e32:	2110      	movs	r1, #16
 8001e34:	187b      	adds	r3, r7, r1
 8001e36:	2207      	movs	r2, #7
 8001e38:	601a      	str	r2, [r3, #0]
                              |RCC_CLOCKTYPE_PCLK1;
  RCC_ClkInitStruct.SYSCLKSource = RCC_SYSCLKSOURCE_HSI;
 8001e3a:	187b      	adds	r3, r7, r1
 8001e3c:	2200      	movs	r2, #0
 8001e3e:	605a      	str	r2, [r3, #4]
  RCC_ClkInitStruct.AHBCLKDivider = RCC_SYSCLK_DIV1;
 8001e40:	187b      	adds	r3, r7, r1
 8001e42:	2200      	movs	r2, #0
 8001e44:	609a      	str	r2, [r3, #8]
  RCC_ClkInitStruct.APB1CLKDivider = RCC_HCLK_DIV1;
 8001e46:	187b      	adds	r3, r7, r1
 8001e48:	2200      	movs	r2, #0
 8001e4a:	60da      	str	r2, [r3, #12]

  if (HAL_RCC_ClockConfig(&RCC_ClkInitStruct, FLASH_LATENCY_0) != HAL_OK)
 8001e4c:	187b      	adds	r3, r7, r1
 8001e4e:	2100      	movs	r1, #0
 8001e50:	0018      	movs	r0, r3
 8001e52:	f001 f9ff 	bl	8003254 <HAL_RCC_ClockConfig>
 8001e56:	1e03      	subs	r3, r0, #0
 8001e58:	d001      	beq.n	8001e5e <SystemClock_Config+0x8a>
  {
    Error_Handler();
 8001e5a:	f000 f8f7 	bl	800204c <Error_Handler>
  }
  PeriphClkInit.PeriphClockSelection = RCC_PERIPHCLK_USART1;
 8001e5e:	003b      	movs	r3, r7
 8001e60:	2201      	movs	r2, #1
 8001e62:	601a      	str	r2, [r3, #0]
  PeriphClkInit.Usart1ClockSelection = RCC_USART1CLKSOURCE_PCLK1;
 8001e64:	003b      	movs	r3, r7
 8001e66:	2200      	movs	r2, #0
 8001e68:	609a      	str	r2, [r3, #8]
  if (HAL_RCCEx_PeriphCLKConfig(&PeriphClkInit) != HAL_OK)
 8001e6a:	003b      	movs	r3, r7
 8001e6c:	0018      	movs	r0, r3
 8001e6e:	f001 fb43 	bl	80034f8 <HAL_RCCEx_PeriphCLKConfig>
 8001e72:	1e03      	subs	r3, r0, #0
 8001e74:	d001      	beq.n	8001e7a <SystemClock_Config+0xa6>
  {
    Error_Handler();
 8001e76:	f000 f8e9 	bl	800204c <Error_Handler>
  }
}
 8001e7a:	46c0      	nop			; (mov r8, r8)
 8001e7c:	46bd      	mov	sp, r7
 8001e7e:	b015      	add	sp, #84	; 0x54
 8001e80:	bd90      	pop	{r4, r7, pc}
	...

08001e84 <MX_USART1_UART_Init>:
  * @brief USART1 Initialization Function
  * @param None
  * @retval None
  */
static void MX_USART1_UART_Init(void)
{
 8001e84:	b580      	push	{r7, lr}
 8001e86:	af00      	add	r7, sp, #0
  /* USER CODE END USART1_Init 0 */

  /* USER CODE BEGIN USART1_Init 1 */

  /* USER CODE END USART1_Init 1 */
  huart1.Instance = USART1;
 8001e88:	4b14      	ldr	r3, [pc, #80]	; (8001edc <MX_USART1_UART_Init+0x58>)
 8001e8a:	4a15      	ldr	r2, [pc, #84]	; (8001ee0 <MX_USART1_UART_Init+0x5c>)
 8001e8c:	601a      	str	r2, [r3, #0]
  huart1.Init.BaudRate = 9600;
 8001e8e:	4b13      	ldr	r3, [pc, #76]	; (8001edc <MX_USART1_UART_Init+0x58>)
 8001e90:	2296      	movs	r2, #150	; 0x96
 8001e92:	0192      	lsls	r2, r2, #6
 8001e94:	605a      	str	r2, [r3, #4]
  huart1.Init.WordLength = UART_WORDLENGTH_8B;
 8001e96:	4b11      	ldr	r3, [pc, #68]	; (8001edc <MX_USART1_UART_Init+0x58>)
 8001e98:	2200      	movs	r2, #0
 8001e9a:	609a      	str	r2, [r3, #8]
  huart1.Init.StopBits = UART_STOPBITS_1;
 8001e9c:	4b0f      	ldr	r3, [pc, #60]	; (8001edc <MX_USART1_UART_Init+0x58>)
 8001e9e:	2200      	movs	r2, #0
 8001ea0:	60da      	str	r2, [r3, #12]
  huart1.Init.Parity = UART_PARITY_NONE;
 8001ea2:	4b0e      	ldr	r3, [pc, #56]	; (8001edc <MX_USART1_UART_Init+0x58>)
 8001ea4:	2200      	movs	r2, #0
 8001ea6:	611a      	str	r2, [r3, #16]
  huart1.Init.Mode = UART_MODE_TX_RX;
 8001ea8:	4b0c      	ldr	r3, [pc, #48]	; (8001edc <MX_USART1_UART_Init+0x58>)
 8001eaa:	220c      	movs	r2, #12
 8001eac:	615a      	str	r2, [r3, #20]
  huart1.Init.HwFlowCtl = UART_HWCONTROL_NONE;
 8001eae:	4b0b      	ldr	r3, [pc, #44]	; (8001edc <MX_USART1_UART_Init+0x58>)
 8001eb0:	2200      	movs	r2, #0
 8001eb2:	619a      	str	r2, [r3, #24]
  huart1.Init.OverSampling = UART_OVERSAMPLING_16;
 8001eb4:	4b09      	ldr	r3, [pc, #36]	; (8001edc <MX_USART1_UART_Init+0x58>)
 8001eb6:	2200      	movs	r2, #0
 8001eb8:	61da      	str	r2, [r3, #28]
  huart1.Init.OneBitSampling = UART_ONE_BIT_SAMPLE_DISABLE;
 8001eba:	4b08      	ldr	r3, [pc, #32]	; (8001edc <MX_USART1_UART_Init+0x58>)
 8001ebc:	2200      	movs	r2, #0
 8001ebe:	621a      	str	r2, [r3, #32]
  huart1.AdvancedInit.AdvFeatureInit = UART_ADVFEATURE_NO_INIT;
 8001ec0:	4b06      	ldr	r3, [pc, #24]	; (8001edc <MX_USART1_UART_Init+0x58>)
 8001ec2:	2200      	movs	r2, #0
 8001ec4:	625a      	str	r2, [r3, #36]	; 0x24
  if (HAL_UART_Init(&huart1) != HAL_OK)
 8001ec6:	4b05      	ldr	r3, [pc, #20]	; (8001edc <MX_USART1_UART_Init+0x58>)
 8001ec8:	0018      	movs	r0, r3
 8001eca:	f001 fbe3 	bl	8003694 <HAL_UART_Init>
 8001ece:	1e03      	subs	r3, r0, #0
 8001ed0:	d001      	beq.n	8001ed6 <MX_USART1_UART_Init+0x52>
  {
    Error_Handler();
 8001ed2:	f000 f8bb 	bl	800204c <Error_Handler>
  }
  /* USER CODE BEGIN USART1_Init 2 */

  /* USER CODE END USART1_Init 2 */

}
 8001ed6:	46c0      	nop			; (mov r8, r8)
 8001ed8:	46bd      	mov	sp, r7
 8001eda:	bd80      	pop	{r7, pc}
 8001edc:	20000028 	.word	0x20000028
 8001ee0:	40013800 	.word	0x40013800

08001ee4 <MX_USART2_UART_Init>:
  * @brief USART2 Initialization Function
  * @param None
  * @retval None
  */
static void MX_USART2_UART_Init(void)
{
 8001ee4:	b580      	push	{r7, lr}
 8001ee6:	af00      	add	r7, sp, #0
  /* USER CODE END USART2_Init 0 */

  /* USER CODE BEGIN USART2_Init 1 */

  /* USER CODE END USART2_Init 1 */
  huart2.Instance = USART2;
 8001ee8:	4b14      	ldr	r3, [pc, #80]	; (8001f3c <MX_USART2_UART_Init+0x58>)
 8001eea:	4a15      	ldr	r2, [pc, #84]	; (8001f40 <MX_USART2_UART_Init+0x5c>)
 8001eec:	601a      	str	r2, [r3, #0]
  huart2.Init.BaudRate = 9600;
 8001eee:	4b13      	ldr	r3, [pc, #76]	; (8001f3c <MX_USART2_UART_Init+0x58>)
 8001ef0:	2296      	movs	r2, #150	; 0x96
 8001ef2:	0192      	lsls	r2, r2, #6
 8001ef4:	605a      	str	r2, [r3, #4]
  huart2.Init.WordLength = UART_WORDLENGTH_8B;
 8001ef6:	4b11      	ldr	r3, [pc, #68]	; (8001f3c <MX_USART2_UART_Init+0x58>)
 8001ef8:	2200      	movs	r2, #0
 8001efa:	609a      	str	r2, [r3, #8]
  huart2.Init.StopBits = UART_STOPBITS_1;
 8001efc:	4b0f      	ldr	r3, [pc, #60]	; (8001f3c <MX_USART2_UART_Init+0x58>)
 8001efe:	2200      	movs	r2, #0
 8001f00:	60da      	str	r2, [r3, #12]
  huart2.Init.Parity = UART_PARITY_NONE;
 8001f02:	4b0e      	ldr	r3, [pc, #56]	; (8001f3c <MX_USART2_UART_Init+0x58>)
 8001f04:	2200      	movs	r2, #0
 8001f06:	611a      	str	r2, [r3, #16]
  huart2.Init.Mode = UART_MODE_TX_RX;
 8001f08:	4b0c      	ldr	r3, [pc, #48]	; (8001f3c <MX_USART2_UART_Init+0x58>)
 8001f0a:	220c      	movs	r2, #12
 8001f0c:	615a      	str	r2, [r3, #20]
  huart2.Init.HwFlowCtl = UART_HWCONTROL_NONE;
 8001f0e:	4b0b      	ldr	r3, [pc, #44]	; (8001f3c <MX_USART2_UART_Init+0x58>)
 8001f10:	2200      	movs	r2, #0
 8001f12:	619a      	str	r2, [r3, #24]
  huart2.Init.OverSampling = UART_OVERSAMPLING_16;
 8001f14:	4b09      	ldr	r3, [pc, #36]	; (8001f3c <MX_USART2_UART_Init+0x58>)
 8001f16:	2200      	movs	r2, #0
 8001f18:	61da      	str	r2, [r3, #28]
  huart2.Init.OneBitSampling = UART_ONE_BIT_SAMPLE_DISABLE;
 8001f1a:	4b08      	ldr	r3, [pc, #32]	; (8001f3c <MX_USART2_UART_Init+0x58>)
 8001f1c:	2200      	movs	r2, #0
 8001f1e:	621a      	str	r2, [r3, #32]
  huart2.AdvancedInit.AdvFeatureInit = UART_ADVFEATURE_NO_INIT;
 8001f20:	4b06      	ldr	r3, [pc, #24]	; (8001f3c <MX_USART2_UART_Init+0x58>)
 8001f22:	2200      	movs	r2, #0
 8001f24:	625a      	str	r2, [r3, #36]	; 0x24
  if (HAL_UART_Init(&huart2) != HAL_OK)
 8001f26:	4b05      	ldr	r3, [pc, #20]	; (8001f3c <MX_USART2_UART_Init+0x58>)
 8001f28:	0018      	movs	r0, r3
 8001f2a:	f001 fbb3 	bl	8003694 <HAL_UART_Init>
 8001f2e:	1e03      	subs	r3, r0, #0
 8001f30:	d001      	beq.n	8001f36 <MX_USART2_UART_Init+0x52>
  {
    Error_Handler();
 8001f32:	f000 f88b 	bl	800204c <Error_Handler>
  }
  /* USER CODE BEGIN USART2_Init 2 */

  /* USER CODE END USART2_Init 2 */

}
 8001f36:	46c0      	nop			; (mov r8, r8)
 8001f38:	46bd      	mov	sp, r7
 8001f3a:	bd80      	pop	{r7, pc}
 8001f3c:	200000ac 	.word	0x200000ac
 8001f40:	40004400 	.word	0x40004400

08001f44 <MX_DMA_Init>:

/**
  * Enable DMA controller clock
  */
static void MX_DMA_Init(void)
{
 8001f44:	b580      	push	{r7, lr}
 8001f46:	b082      	sub	sp, #8
 8001f48:	af00      	add	r7, sp, #0

  /* DMA controller clock enable */
  __HAL_RCC_DMA1_CLK_ENABLE();
 8001f4a:	4b0c      	ldr	r3, [pc, #48]	; (8001f7c <MX_DMA_Init+0x38>)
 8001f4c:	695a      	ldr	r2, [r3, #20]
 8001f4e:	4b0b      	ldr	r3, [pc, #44]	; (8001f7c <MX_DMA_Init+0x38>)
 8001f50:	2101      	movs	r1, #1
 8001f52:	430a      	orrs	r2, r1
 8001f54:	615a      	str	r2, [r3, #20]
 8001f56:	4b09      	ldr	r3, [pc, #36]	; (8001f7c <MX_DMA_Init+0x38>)
 8001f58:	695b      	ldr	r3, [r3, #20]
 8001f5a:	2201      	movs	r2, #1
 8001f5c:	4013      	ands	r3, r2
 8001f5e:	607b      	str	r3, [r7, #4]
 8001f60:	687b      	ldr	r3, [r7, #4]

  /* DMA interrupt init */
  /* DMA1_Channel2_3_IRQn interrupt configuration */
  HAL_NVIC_SetPriority(DMA1_Channel2_3_IRQn, 0, 0);
 8001f62:	2200      	movs	r2, #0
 8001f64:	2100      	movs	r1, #0
 8001f66:	200a      	movs	r0, #10
 8001f68:	f000 fafc 	bl	8002564 <HAL_NVIC_SetPriority>
  HAL_NVIC_EnableIRQ(DMA1_Channel2_3_IRQn);
 8001f6c:	200a      	movs	r0, #10
 8001f6e:	f000 fb0e 	bl	800258e <HAL_NVIC_EnableIRQ>

}
 8001f72:	46c0      	nop			; (mov r8, r8)
 8001f74:	46bd      	mov	sp, r7
 8001f76:	b002      	add	sp, #8
 8001f78:	bd80      	pop	{r7, pc}
 8001f7a:	46c0      	nop			; (mov r8, r8)
 8001f7c:	40021000 	.word	0x40021000

08001f80 <MX_GPIO_Init>:
  * @brief GPIO Initialization Function
  * @param None
  * @retval None
  */
static void MX_GPIO_Init(void)
{
 8001f80:	b590      	push	{r4, r7, lr}
 8001f82:	b089      	sub	sp, #36	; 0x24
 8001f84:	af00      	add	r7, sp, #0
  GPIO_InitTypeDef GPIO_InitStruct = {0};
 8001f86:	240c      	movs	r4, #12
 8001f88:	193b      	adds	r3, r7, r4
 8001f8a:	0018      	movs	r0, r3
 8001f8c:	2314      	movs	r3, #20
 8001f8e:	001a      	movs	r2, r3
 8001f90:	2100      	movs	r1, #0
 8001f92:	f002 fd85 	bl	8004aa0 <memset>

  /* GPIO Ports Clock Enable */
  __HAL_RCC_GPIOC_CLK_ENABLE();
 8001f96:	4b2b      	ldr	r3, [pc, #172]	; (8002044 <MX_GPIO_Init+0xc4>)
 8001f98:	695a      	ldr	r2, [r3, #20]
 8001f9a:	4b2a      	ldr	r3, [pc, #168]	; (8002044 <MX_GPIO_Init+0xc4>)
 8001f9c:	2180      	movs	r1, #128	; 0x80
 8001f9e:	0309      	lsls	r1, r1, #12
 8001fa0:	430a      	orrs	r2, r1
 8001fa2:	615a      	str	r2, [r3, #20]
 8001fa4:	4b27      	ldr	r3, [pc, #156]	; (8002044 <MX_GPIO_Init+0xc4>)
 8001fa6:	695a      	ldr	r2, [r3, #20]
 8001fa8:	2380      	movs	r3, #128	; 0x80
 8001faa:	031b      	lsls	r3, r3, #12
 8001fac:	4013      	ands	r3, r2
 8001fae:	60bb      	str	r3, [r7, #8]
 8001fb0:	68bb      	ldr	r3, [r7, #8]
  __HAL_RCC_GPIOA_CLK_ENABLE();
 8001fb2:	4b24      	ldr	r3, [pc, #144]	; (8002044 <MX_GPIO_Init+0xc4>)
 8001fb4:	695a      	ldr	r2, [r3, #20]
 8001fb6:	4b23      	ldr	r3, [pc, #140]	; (8002044 <MX_GPIO_Init+0xc4>)
 8001fb8:	2180      	movs	r1, #128	; 0x80
 8001fba:	0289      	lsls	r1, r1, #10
 8001fbc:	430a      	orrs	r2, r1
 8001fbe:	615a      	str	r2, [r3, #20]
 8001fc0:	4b20      	ldr	r3, [pc, #128]	; (8002044 <MX_GPIO_Init+0xc4>)
 8001fc2:	695a      	ldr	r2, [r3, #20]
 8001fc4:	2380      	movs	r3, #128	; 0x80
 8001fc6:	029b      	lsls	r3, r3, #10
 8001fc8:	4013      	ands	r3, r2
 8001fca:	607b      	str	r3, [r7, #4]
 8001fcc:	687b      	ldr	r3, [r7, #4]

  /*Configure GPIO pin Output Level */
  HAL_GPIO_WritePin(LED_PC13_GPIO_Port, LED_PC13_Pin, GPIO_PIN_SET);
 8001fce:	2380      	movs	r3, #128	; 0x80
 8001fd0:	019b      	lsls	r3, r3, #6
 8001fd2:	481d      	ldr	r0, [pc, #116]	; (8002048 <MX_GPIO_Init+0xc8>)
 8001fd4:	2201      	movs	r2, #1
 8001fd6:	0019      	movs	r1, r3
 8001fd8:	f000 fdea 	bl	8002bb0 <HAL_GPIO_WritePin>

  /*Configure GPIO pin Output Level */
  HAL_GPIO_WritePin(RESET_SIM800l_GPIO_Port, RESET_SIM800l_Pin, GPIO_PIN_RESET);
 8001fdc:	2380      	movs	r3, #128	; 0x80
 8001fde:	0219      	lsls	r1, r3, #8
 8001fe0:	2390      	movs	r3, #144	; 0x90
 8001fe2:	05db      	lsls	r3, r3, #23
 8001fe4:	2200      	movs	r2, #0
 8001fe6:	0018      	movs	r0, r3
 8001fe8:	f000 fde2 	bl	8002bb0 <HAL_GPIO_WritePin>

  /*Configure GPIO pin : LED_PC13_Pin */
  GPIO_InitStruct.Pin = LED_PC13_Pin;
 8001fec:	193b      	adds	r3, r7, r4
 8001fee:	2280      	movs	r2, #128	; 0x80
 8001ff0:	0192      	lsls	r2, r2, #6
 8001ff2:	601a      	str	r2, [r3, #0]
  GPIO_InitStruct.Mode = GPIO_MODE_OUTPUT_PP;
 8001ff4:	193b      	adds	r3, r7, r4
 8001ff6:	2201      	movs	r2, #1
 8001ff8:	605a      	str	r2, [r3, #4]
  GPIO_InitStruct.Pull = GPIO_NOPULL;
 8001ffa:	193b      	adds	r3, r7, r4
 8001ffc:	2200      	movs	r2, #0
 8001ffe:	609a      	str	r2, [r3, #8]
  GPIO_InitStruct.Speed = GPIO_SPEED_FREQ_LOW;
 8002000:	193b      	adds	r3, r7, r4
 8002002:	2200      	movs	r2, #0
 8002004:	60da      	str	r2, [r3, #12]
  HAL_GPIO_Init(LED_PC13_GPIO_Port, &GPIO_InitStruct);
 8002006:	193b      	adds	r3, r7, r4
 8002008:	4a0f      	ldr	r2, [pc, #60]	; (8002048 <MX_GPIO_Init+0xc8>)
 800200a:	0019      	movs	r1, r3
 800200c:	0010      	movs	r0, r2
 800200e:	f000 fc5f 	bl	80028d0 <HAL_GPIO_Init>

  /*Configure GPIO pin : RESET_SIM800l_Pin */
  GPIO_InitStruct.Pin = RESET_SIM800l_Pin;
 8002012:	0021      	movs	r1, r4
 8002014:	187b      	adds	r3, r7, r1
 8002016:	2280      	movs	r2, #128	; 0x80
 8002018:	0212      	lsls	r2, r2, #8
 800201a:	601a      	str	r2, [r3, #0]
  GPIO_InitStruct.Mode = GPIO_MODE_OUTPUT_PP;
 800201c:	187b      	adds	r3, r7, r1
 800201e:	2201      	movs	r2, #1
 8002020:	605a      	str	r2, [r3, #4]
  GPIO_InitStruct.Pull = GPIO_NOPULL;
 8002022:	187b      	adds	r3, r7, r1
 8002024:	2200      	movs	r2, #0
 8002026:	609a      	str	r2, [r3, #8]
  GPIO_InitStruct.Speed = GPIO_SPEED_FREQ_LOW;
 8002028:	187b      	adds	r3, r7, r1
 800202a:	2200      	movs	r2, #0
 800202c:	60da      	str	r2, [r3, #12]
  HAL_GPIO_Init(RESET_SIM800l_GPIO_Port, &GPIO_InitStruct);
 800202e:	187a      	adds	r2, r7, r1
 8002030:	2390      	movs	r3, #144	; 0x90
 8002032:	05db      	lsls	r3, r3, #23
 8002034:	0011      	movs	r1, r2
 8002036:	0018      	movs	r0, r3
 8002038:	f000 fc4a 	bl	80028d0 <HAL_GPIO_Init>

}
 800203c:	46c0      	nop			; (mov r8, r8)
 800203e:	46bd      	mov	sp, r7
 8002040:	b009      	add	sp, #36	; 0x24
 8002042:	bd90      	pop	{r4, r7, pc}
 8002044:	40021000 	.word	0x40021000
 8002048:	48000800 	.word	0x48000800

0800204c <Error_Handler>:
/**
  * @brief  This function is executed in case of error occurrence.
  * @retval None
  */
void Error_Handler(void)
{
 800204c:	b580      	push	{r7, lr}
 800204e:	af00      	add	r7, sp, #0
  \details Disables IRQ interrupts by setting the I-bit in the CPSR.
           Can only be executed in Privileged modes.
 */
__STATIC_FORCEINLINE void __disable_irq(void)
{
  __ASM volatile ("cpsid i" : : : "memory");
 8002050:	b672      	cpsid	i
}
 8002052:	46c0      	nop			; (mov r8, r8)
  /* USER CODE BEGIN Error_Handler_Debug */
  /* User can add his own implementation to report the HAL error return state */
  __disable_irq();
  while (1)
 8002054:	e7fe      	b.n	8002054 <Error_Handler+0x8>
	...

08002058 <HAL_MspInit>:
 8002058:	b580      	push	{r7, lr}
 800205a:	b082      	sub	sp, #8
 800205c:	af00      	add	r7, sp, #0
 800205e:	4b0f      	ldr	r3, [pc, #60]	; (800209c <HAL_MspInit+0x44>)
 8002060:	699a      	ldr	r2, [r3, #24]
 8002062:	4b0e      	ldr	r3, [pc, #56]	; (800209c <HAL_MspInit+0x44>)
 8002064:	2101      	movs	r1, #1
 8002066:	430a      	orrs	r2, r1
 8002068:	619a      	str	r2, [r3, #24]
 800206a:	4b0c      	ldr	r3, [pc, #48]	; (800209c <HAL_MspInit+0x44>)
 800206c:	699b      	ldr	r3, [r3, #24]
 800206e:	2201      	movs	r2, #1
 8002070:	4013      	ands	r3, r2
 8002072:	607b      	str	r3, [r7, #4]
 8002074:	687b      	ldr	r3, [r7, #4]
 8002076:	4b09      	ldr	r3, [pc, #36]	; (800209c <HAL_MspInit+0x44>)
 8002078:	69da      	ldr	r2, [r3, #28]
 800207a:	4b08      	ldr	r3, [pc, #32]	; (800209c <HAL_MspInit+0x44>)
 800207c:	2180      	movs	r1, #128	; 0x80
 800207e:	0549      	lsls	r1, r1, #21
 8002080:	430a      	orrs	r2, r1
 8002082:	61da      	str	r2, [r3, #28]
 8002084:	4b05      	ldr	r3, [pc, #20]	; (800209c <HAL_MspInit+0x44>)
 8002086:	69da      	ldr	r2, [r3, #28]
 8002088:	2380      	movs	r3, #128	; 0x80
 800208a:	055b      	lsls	r3, r3, #21
 800208c:	4013      	ands	r3, r2
 800208e:	603b      	str	r3, [r7, #0]
 8002090:	683b      	ldr	r3, [r7, #0]
 8002092:	46c0      	nop			; (mov r8, r8)
 8002094:	46bd      	mov	sp, r7
 8002096:	b002      	add	sp, #8
 8002098:	bd80      	pop	{r7, pc}
 800209a:	46c0      	nop			; (mov r8, r8)
 800209c:	40021000 	.word	0x40021000

080020a0 <HAL_UART_MspInit>:
 80020a0:	b590      	push	{r4, r7, lr}
 80020a2:	b08d      	sub	sp, #52	; 0x34
 80020a4:	af00      	add	r7, sp, #0
 80020a6:	6078      	str	r0, [r7, #4]
 80020a8:	241c      	movs	r4, #28
 80020aa:	193b      	adds	r3, r7, r4
 80020ac:	0018      	movs	r0, r3
 80020ae:	2314      	movs	r3, #20
 80020b0:	001a      	movs	r2, r3
 80020b2:	2100      	movs	r1, #0
 80020b4:	f002 fcf4 	bl	8004aa0 <memset>
 80020b8:	687b      	ldr	r3, [r7, #4]
 80020ba:	681b      	ldr	r3, [r3, #0]
 80020bc:	4a54      	ldr	r2, [pc, #336]	; (8002210 <HAL_UART_MspInit+0x170>)
 80020be:	4293      	cmp	r3, r2
 80020c0:	d162      	bne.n	8002188 <HAL_UART_MspInit+0xe8>
 80020c2:	4b54      	ldr	r3, [pc, #336]	; (8002214 <HAL_UART_MspInit+0x174>)
 80020c4:	699a      	ldr	r2, [r3, #24]
 80020c6:	4b53      	ldr	r3, [pc, #332]	; (8002214 <HAL_UART_MspInit+0x174>)
 80020c8:	2180      	movs	r1, #128	; 0x80
 80020ca:	01c9      	lsls	r1, r1, #7
 80020cc:	430a      	orrs	r2, r1
 80020ce:	619a      	str	r2, [r3, #24]
 80020d0:	4b50      	ldr	r3, [pc, #320]	; (8002214 <HAL_UART_MspInit+0x174>)
 80020d2:	699a      	ldr	r2, [r3, #24]
 80020d4:	2380      	movs	r3, #128	; 0x80
 80020d6:	01db      	lsls	r3, r3, #7
 80020d8:	4013      	ands	r3, r2
 80020da:	61bb      	str	r3, [r7, #24]
 80020dc:	69bb      	ldr	r3, [r7, #24]
 80020de:	4b4d      	ldr	r3, [pc, #308]	; (8002214 <HAL_UART_MspInit+0x174>)
 80020e0:	695a      	ldr	r2, [r3, #20]
 80020e2:	4b4c      	ldr	r3, [pc, #304]	; (8002214 <HAL_UART_MspInit+0x174>)
 80020e4:	2180      	movs	r1, #128	; 0x80
 80020e6:	0289      	lsls	r1, r1, #10
 80020e8:	430a      	orrs	r2, r1
 80020ea:	615a      	str	r2, [r3, #20]
 80020ec:	4b49      	ldr	r3, [pc, #292]	; (8002214 <HAL_UART_MspInit+0x174>)
 80020ee:	695a      	ldr	r2, [r3, #20]
 80020f0:	2380      	movs	r3, #128	; 0x80
 80020f2:	029b      	lsls	r3, r3, #10
 80020f4:	4013      	ands	r3, r2
 80020f6:	617b      	str	r3, [r7, #20]
 80020f8:	697b      	ldr	r3, [r7, #20]
 80020fa:	193b      	adds	r3, r7, r4
 80020fc:	22c0      	movs	r2, #192	; 0xc0
 80020fe:	00d2      	lsls	r2, r2, #3
 8002100:	601a      	str	r2, [r3, #0]
 8002102:	0021      	movs	r1, r4
 8002104:	187b      	adds	r3, r7, r1
 8002106:	2202      	movs	r2, #2
 8002108:	605a      	str	r2, [r3, #4]
 800210a:	187b      	adds	r3, r7, r1
 800210c:	2200      	movs	r2, #0
 800210e:	609a      	str	r2, [r3, #8]
 8002110:	187b      	adds	r3, r7, r1
 8002112:	2203      	movs	r2, #3
 8002114:	60da      	str	r2, [r3, #12]
 8002116:	187b      	adds	r3, r7, r1
 8002118:	2201      	movs	r2, #1
 800211a:	611a      	str	r2, [r3, #16]
 800211c:	187a      	adds	r2, r7, r1
 800211e:	2390      	movs	r3, #144	; 0x90
 8002120:	05db      	lsls	r3, r3, #23
 8002122:	0011      	movs	r1, r2
 8002124:	0018      	movs	r0, r3
 8002126:	f000 fbd3 	bl	80028d0 <HAL_GPIO_Init>
 800212a:	4b3b      	ldr	r3, [pc, #236]	; (8002218 <HAL_UART_MspInit+0x178>)
 800212c:	4a3b      	ldr	r2, [pc, #236]	; (800221c <HAL_UART_MspInit+0x17c>)
 800212e:	601a      	str	r2, [r3, #0]
 8002130:	4b39      	ldr	r3, [pc, #228]	; (8002218 <HAL_UART_MspInit+0x178>)
 8002132:	2200      	movs	r2, #0
 8002134:	605a      	str	r2, [r3, #4]
 8002136:	4b38      	ldr	r3, [pc, #224]	; (8002218 <HAL_UART_MspInit+0x178>)
 8002138:	2200      	movs	r2, #0
 800213a:	609a      	str	r2, [r3, #8]
 800213c:	4b36      	ldr	r3, [pc, #216]	; (8002218 <HAL_UART_MspInit+0x178>)
 800213e:	2280      	movs	r2, #128	; 0x80
 8002140:	60da      	str	r2, [r3, #12]
 8002142:	4b35      	ldr	r3, [pc, #212]	; (8002218 <HAL_UART_MspInit+0x178>)
 8002144:	2200      	movs	r2, #0
 8002146:	611a      	str	r2, [r3, #16]
 8002148:	4b33      	ldr	r3, [pc, #204]	; (8002218 <HAL_UART_MspInit+0x178>)
 800214a:	2200      	movs	r2, #0
 800214c:	615a      	str	r2, [r3, #20]
 800214e:	4b32      	ldr	r3, [pc, #200]	; (8002218 <HAL_UART_MspInit+0x178>)
 8002150:	2220      	movs	r2, #32
 8002152:	619a      	str	r2, [r3, #24]
 8002154:	4b30      	ldr	r3, [pc, #192]	; (8002218 <HAL_UART_MspInit+0x178>)
 8002156:	2200      	movs	r2, #0
 8002158:	61da      	str	r2, [r3, #28]
 800215a:	4b2f      	ldr	r3, [pc, #188]	; (8002218 <HAL_UART_MspInit+0x178>)
 800215c:	0018      	movs	r0, r3
 800215e:	f000 fa33 	bl	80025c8 <HAL_DMA_Init>
 8002162:	1e03      	subs	r3, r0, #0
 8002164:	d001      	beq.n	800216a <HAL_UART_MspInit+0xca>
 8002166:	f7ff ff71 	bl	800204c <Error_Handler>
 800216a:	687b      	ldr	r3, [r7, #4]
 800216c:	4a2a      	ldr	r2, [pc, #168]	; (8002218 <HAL_UART_MspInit+0x178>)
 800216e:	671a      	str	r2, [r3, #112]	; 0x70
 8002170:	4b29      	ldr	r3, [pc, #164]	; (8002218 <HAL_UART_MspInit+0x178>)
 8002172:	687a      	ldr	r2, [r7, #4]
 8002174:	625a      	str	r2, [r3, #36]	; 0x24
 8002176:	2200      	movs	r2, #0
 8002178:	2100      	movs	r1, #0
 800217a:	201b      	movs	r0, #27
 800217c:	f000 f9f2 	bl	8002564 <HAL_NVIC_SetPriority>
 8002180:	201b      	movs	r0, #27
 8002182:	f000 fa04 	bl	800258e <HAL_NVIC_EnableIRQ>
 8002186:	e03f      	b.n	8002208 <HAL_UART_MspInit+0x168>
 8002188:	687b      	ldr	r3, [r7, #4]
 800218a:	681b      	ldr	r3, [r3, #0]
 800218c:	4a24      	ldr	r2, [pc, #144]	; (8002220 <HAL_UART_MspInit+0x180>)
 800218e:	4293      	cmp	r3, r2
 8002190:	d13a      	bne.n	8002208 <HAL_UART_MspInit+0x168>
 8002192:	4b20      	ldr	r3, [pc, #128]	; (8002214 <HAL_UART_MspInit+0x174>)
 8002194:	69da      	ldr	r2, [r3, #28]
 8002196:	4b1f      	ldr	r3, [pc, #124]	; (8002214 <HAL_UART_MspInit+0x174>)
 8002198:	2180      	movs	r1, #128	; 0x80
 800219a:	0289      	lsls	r1, r1, #10
 800219c:	430a      	orrs	r2, r1
 800219e:	61da      	str	r2, [r3, #28]
 80021a0:	4b1c      	ldr	r3, [pc, #112]	; (8002214 <HAL_UART_MspInit+0x174>)
 80021a2:	69da      	ldr	r2, [r3, #28]
 80021a4:	2380      	movs	r3, #128	; 0x80
 80021a6:	029b      	lsls	r3, r3, #10
 80021a8:	4013      	ands	r3, r2
 80021aa:	613b      	str	r3, [r7, #16]
 80021ac:	693b      	ldr	r3, [r7, #16]
 80021ae:	4b19      	ldr	r3, [pc, #100]	; (8002214 <HAL_UART_MspInit+0x174>)
 80021b0:	695a      	ldr	r2, [r3, #20]
 80021b2:	4b18      	ldr	r3, [pc, #96]	; (8002214 <HAL_UART_MspInit+0x174>)
 80021b4:	2180      	movs	r1, #128	; 0x80
 80021b6:	0289      	lsls	r1, r1, #10
 80021b8:	430a      	orrs	r2, r1
 80021ba:	615a      	str	r2, [r3, #20]
 80021bc:	4b15      	ldr	r3, [pc, #84]	; (8002214 <HAL_UART_MspInit+0x174>)
 80021be:	695a      	ldr	r2, [r3, #20]
 80021c0:	2380      	movs	r3, #128	; 0x80
 80021c2:	029b      	lsls	r3, r3, #10
 80021c4:	4013      	ands	r3, r2
 80021c6:	60fb      	str	r3, [r7, #12]
 80021c8:	68fb      	ldr	r3, [r7, #12]
 80021ca:	211c      	movs	r1, #28
 80021cc:	187b      	adds	r3, r7, r1
 80021ce:	220c      	movs	r2, #12
 80021d0:	601a      	str	r2, [r3, #0]
 80021d2:	187b      	adds	r3, r7, r1
 80021d4:	2202      	movs	r2, #2
 80021d6:	605a      	str	r2, [r3, #4]
 80021d8:	187b      	adds	r3, r7, r1
 80021da:	2200      	movs	r2, #0
 80021dc:	609a      	str	r2, [r3, #8]
 80021de:	187b      	adds	r3, r7, r1
 80021e0:	2203      	movs	r2, #3
 80021e2:	60da      	str	r2, [r3, #12]
 80021e4:	187b      	adds	r3, r7, r1
 80021e6:	2201      	movs	r2, #1
 80021e8:	611a      	str	r2, [r3, #16]
 80021ea:	187a      	adds	r2, r7, r1
 80021ec:	2390      	movs	r3, #144	; 0x90
 80021ee:	05db      	lsls	r3, r3, #23
 80021f0:	0011      	movs	r1, r2
 80021f2:	0018      	movs	r0, r3
 80021f4:	f000 fb6c 	bl	80028d0 <HAL_GPIO_Init>
 80021f8:	2200      	movs	r2, #0
 80021fa:	2100      	movs	r1, #0
 80021fc:	201c      	movs	r0, #28
 80021fe:	f000 f9b1 	bl	8002564 <HAL_NVIC_SetPriority>
 8002202:	201c      	movs	r0, #28
 8002204:	f000 f9c3 	bl	800258e <HAL_NVIC_EnableIRQ>
 8002208:	46c0      	nop			; (mov r8, r8)
 800220a:	46bd      	mov	sp, r7
 800220c:	b00d      	add	sp, #52	; 0x34
 800220e:	bd90      	pop	{r4, r7, pc}
 8002210:	40013800 	.word	0x40013800
 8002214:	40021000 	.word	0x40021000
 8002218:	20000130 	.word	0x20000130
 800221c:	40020030 	.word	0x40020030
 8002220:	40004400 	.word	0x40004400

08002224 <NMI_Handler>:
 8002224:	b580      	push	{r7, lr}
 8002226:	af00      	add	r7, sp, #0
 8002228:	e7fe      	b.n	8002228 <NMI_Handler+0x4>

0800222a <HardFault_Handler>:
 800222a:	b580      	push	{r7, lr}
 800222c:	af00      	add	r7, sp, #0
 800222e:	e7fe      	b.n	800222e <HardFault_Handler+0x4>

08002230 <SVC_Handler>:
 8002230:	b580      	push	{r7, lr}
 8002232:	af00      	add	r7, sp, #0
 8002234:	46c0      	nop			; (mov r8, r8)
 8002236:	46bd      	mov	sp, r7
 8002238:	bd80      	pop	{r7, pc}

0800223a <PendSV_Handler>:
 800223a:	b580      	push	{r7, lr}
 800223c:	af00      	add	r7, sp, #0
 800223e:	46c0      	nop			; (mov r8, r8)
 8002240:	46bd      	mov	sp, r7
 8002242:	bd80      	pop	{r7, pc}

08002244 <SysTick_Handler>:
 8002244:	b580      	push	{r7, lr}
 8002246:	af00      	add	r7, sp, #0
 8002248:	f000 f8a0 	bl	800238c <HAL_IncTick>
 800224c:	46c0      	nop			; (mov r8, r8)
 800224e:	46bd      	mov	sp, r7
 8002250:	bd80      	pop	{r7, pc}
	...

08002254 <DMA1_Channel2_3_IRQHandler>:
 8002254:	b580      	push	{r7, lr}
 8002256:	af00      	add	r7, sp, #0
 8002258:	4b03      	ldr	r3, [pc, #12]	; (8002268 <DMA1_Channel2_3_IRQHandler+0x14>)
 800225a:	0018      	movs	r0, r3
 800225c:	f000 fa79 	bl	8002752 <HAL_DMA_IRQHandler>
 8002260:	46c0      	nop			; (mov r8, r8)
 8002262:	46bd      	mov	sp, r7
 8002264:	bd80      	pop	{r7, pc}
 8002266:	46c0      	nop			; (mov r8, r8)
 8002268:	20000130 	.word	0x20000130

0800226c <USART1_IRQHandler>:
 800226c:	b580      	push	{r7, lr}
 800226e:	af00      	add	r7, sp, #0
 8002270:	4b03      	ldr	r3, [pc, #12]	; (8002280 <USART1_IRQHandler+0x14>)
 8002272:	0018      	movs	r0, r3
 8002274:	f001 fb6c 	bl	8003950 <HAL_UART_IRQHandler>
 8002278:	46c0      	nop			; (mov r8, r8)
 800227a:	46bd      	mov	sp, r7
 800227c:	bd80      	pop	{r7, pc}
 800227e:	46c0      	nop			; (mov r8, r8)
 8002280:	20000028 	.word	0x20000028

08002284 <USART2_IRQHandler>:
 8002284:	b580      	push	{r7, lr}
 8002286:	af00      	add	r7, sp, #0
 8002288:	4b03      	ldr	r3, [pc, #12]	; (8002298 <USART2_IRQHandler+0x14>)
 800228a:	0018      	movs	r0, r3
 800228c:	f001 fb60 	bl	8003950 <HAL_UART_IRQHandler>
 8002290:	46c0      	nop			; (mov r8, r8)
 8002292:	46bd      	mov	sp, r7
 8002294:	bd80      	pop	{r7, pc}
 8002296:	46c0      	nop			; (mov r8, r8)
 8002298:	200000ac 	.word	0x200000ac

0800229c <SystemInit>:
 800229c:	b580      	push	{r7, lr}
 800229e:	af00      	add	r7, sp, #0
 80022a0:	46c0      	nop			; (mov r8, r8)
 80022a2:	46bd      	mov	sp, r7
 80022a4:	bd80      	pop	{r7, pc}
	...

080022a8 <Reset_Handler>:
 80022a8:	480d      	ldr	r0, [pc, #52]	; (80022e0 <LoopForever+0x2>)
 80022aa:	4685      	mov	sp, r0
 80022ac:	480d      	ldr	r0, [pc, #52]	; (80022e4 <LoopForever+0x6>)
 80022ae:	490e      	ldr	r1, [pc, #56]	; (80022e8 <LoopForever+0xa>)
 80022b0:	4a0e      	ldr	r2, [pc, #56]	; (80022ec <LoopForever+0xe>)
 80022b2:	2300      	movs	r3, #0
 80022b4:	e002      	b.n	80022bc <LoopCopyDataInit>

080022b6 <CopyDataInit>:
 80022b6:	58d4      	ldr	r4, [r2, r3]
 80022b8:	50c4      	str	r4, [r0, r3]
 80022ba:	3304      	adds	r3, #4

080022bc <LoopCopyDataInit>:
 80022bc:	18c4      	adds	r4, r0, r3
 80022be:	428c      	cmp	r4, r1
 80022c0:	d3f9      	bcc.n	80022b6 <CopyDataInit>
 80022c2:	4a0b      	ldr	r2, [pc, #44]	; (80022f0 <LoopForever+0x12>)
 80022c4:	4c0b      	ldr	r4, [pc, #44]	; (80022f4 <LoopForever+0x16>)
 80022c6:	2300      	movs	r3, #0
 80022c8:	e001      	b.n	80022ce <LoopFillZerobss>

080022ca <FillZerobss>:
 80022ca:	6013      	str	r3, [r2, #0]
 80022cc:	3204      	adds	r2, #4

080022ce <LoopFillZerobss>:
 80022ce:	42a2      	cmp	r2, r4
 80022d0:	d3fb      	bcc.n	80022ca <FillZerobss>
 80022d2:	f7ff ffe3 	bl	800229c <SystemInit>
 80022d6:	f002 fbbf 	bl	8004a58 <__libc_init_array>
 80022da:	f7fd ffe3 	bl	80002a4 <main>

080022de <LoopForever>:
 80022de:	e7fe      	b.n	80022de <LoopForever>
 80022e0:	20002000 	.word	0x20002000
 80022e4:	20000000 	.word	0x20000000
 80022e8:	2000000c 	.word	0x2000000c
 80022ec:	08004b08 	.word	0x08004b08
 80022f0:	2000000c 	.word	0x2000000c
 80022f4:	2000034c 	.word	0x2000034c

080022f8 <ADC1_IRQHandler>:
 80022f8:	e7fe      	b.n	80022f8 <ADC1_IRQHandler>
	...

080022fc <HAL_Init>:
 80022fc:	b580      	push	{r7, lr}
 80022fe:	af00      	add	r7, sp, #0
 8002300:	4b07      	ldr	r3, [pc, #28]	; (8002320 <HAL_Init+0x24>)
 8002302:	681a      	ldr	r2, [r3, #0]
 8002304:	4b06      	ldr	r3, [pc, #24]	; (8002320 <HAL_Init+0x24>)
 8002306:	2110      	movs	r1, #16
 8002308:	430a      	orrs	r2, r1
 800230a:	601a      	str	r2, [r3, #0]
 800230c:	2003      	movs	r0, #3
 800230e:	f000 f809 	bl	8002324 <HAL_InitTick>
 8002312:	f7ff fea1 	bl	8002058 <HAL_MspInit>
 8002316:	2300      	movs	r3, #0
 8002318:	0018      	movs	r0, r3
 800231a:	46bd      	mov	sp, r7
 800231c:	bd80      	pop	{r7, pc}
 800231e:	46c0      	nop			; (mov r8, r8)
 8002320:	40022000 	.word	0x40022000

08002324 <HAL_InitTick>:
 8002324:	b590      	push	{r4, r7, lr}
 8002326:	b083      	sub	sp, #12
 8002328:	af00      	add	r7, sp, #0
 800232a:	6078      	str	r0, [r7, #4]
 800232c:	4b14      	ldr	r3, [pc, #80]	; (8002380 <HAL_InitTick+0x5c>)
 800232e:	681c      	ldr	r4, [r3, #0]
 8002330:	4b14      	ldr	r3, [pc, #80]	; (8002384 <HAL_InitTick+0x60>)
 8002332:	781b      	ldrb	r3, [r3, #0]
 8002334:	0019      	movs	r1, r3
 8002336:	23fa      	movs	r3, #250	; 0xfa
 8002338:	0098      	lsls	r0, r3, #2
 800233a:	f7fd feed 	bl	8000118 <__udivsi3>
 800233e:	0003      	movs	r3, r0
 8002340:	0019      	movs	r1, r3
 8002342:	0020      	movs	r0, r4
 8002344:	f7fd fee8 	bl	8000118 <__udivsi3>
 8002348:	0003      	movs	r3, r0
 800234a:	0018      	movs	r0, r3
 800234c:	f000 f92f 	bl	80025ae <HAL_SYSTICK_Config>
 8002350:	1e03      	subs	r3, r0, #0
 8002352:	d001      	beq.n	8002358 <HAL_InitTick+0x34>
 8002354:	2301      	movs	r3, #1
 8002356:	e00f      	b.n	8002378 <HAL_InitTick+0x54>
 8002358:	687b      	ldr	r3, [r7, #4]
 800235a:	2b03      	cmp	r3, #3
 800235c:	d80b      	bhi.n	8002376 <HAL_InitTick+0x52>
 800235e:	6879      	ldr	r1, [r7, #4]
 8002360:	2301      	movs	r3, #1
 8002362:	425b      	negs	r3, r3
 8002364:	2200      	movs	r2, #0
 8002366:	0018      	movs	r0, r3
 8002368:	f000 f8fc 	bl	8002564 <HAL_NVIC_SetPriority>
 800236c:	4b06      	ldr	r3, [pc, #24]	; (8002388 <HAL_InitTick+0x64>)
 800236e:	687a      	ldr	r2, [r7, #4]
 8002370:	601a      	str	r2, [r3, #0]
 8002372:	2300      	movs	r3, #0
 8002374:	e000      	b.n	8002378 <HAL_InitTick+0x54>
 8002376:	2301      	movs	r3, #1
 8002378:	0018      	movs	r0, r3
 800237a:	46bd      	mov	sp, r7
 800237c:	b003      	add	sp, #12
 800237e:	bd90      	pop	{r4, r7, pc}
 8002380:	20000000 	.word	0x20000000
 8002384:	20000008 	.word	0x20000008
 8002388:	20000004 	.word	0x20000004

0800238c <HAL_IncTick>:
 800238c:	b580      	push	{r7, lr}
 800238e:	af00      	add	r7, sp, #0
 8002390:	4b05      	ldr	r3, [pc, #20]	; (80023a8 <HAL_IncTick+0x1c>)
 8002392:	781b      	ldrb	r3, [r3, #0]
 8002394:	001a      	movs	r2, r3
 8002396:	4b05      	ldr	r3, [pc, #20]	; (80023ac <HAL_IncTick+0x20>)
 8002398:	681b      	ldr	r3, [r3, #0]
 800239a:	18d2      	adds	r2, r2, r3
 800239c:	4b03      	ldr	r3, [pc, #12]	; (80023ac <HAL_IncTick+0x20>)
 800239e:	601a      	str	r2, [r3, #0]
 80023a0:	46c0      	nop			; (mov r8, r8)
 80023a2:	46bd      	mov	sp, r7
 80023a4:	bd80      	pop	{r7, pc}
 80023a6:	46c0      	nop			; (mov r8, r8)
 80023a8:	20000008 	.word	0x20000008
 80023ac:	20000348 	.word	0x20000348

080023b0 <HAL_GetTick>:
 80023b0:	b580      	push	{r7, lr}
 80023b2:	af00      	add	r7, sp, #0
 80023b4:	4b02      	ldr	r3, [pc, #8]	; (80023c0 <HAL_GetTick+0x10>)
 80023b6:	681b      	ldr	r3, [r3, #0]
 80023b8:	0018      	movs	r0, r3
 80023ba:	46bd      	mov	sp, r7
 80023bc:	bd80      	pop	{r7, pc}
 80023be:	46c0      	nop			; (mov r8, r8)
 80023c0:	20000348 	.word	0x20000348

080023c4 <HAL_Delay>:
 80023c4:	b580      	push	{r7, lr}
 80023c6:	b084      	sub	sp, #16
 80023c8:	af00      	add	r7, sp, #0
 80023ca:	6078      	str	r0, [r7, #4]
 80023cc:	f7ff fff0 	bl	80023b0 <HAL_GetTick>
 80023d0:	0003      	movs	r3, r0
 80023d2:	60bb      	str	r3, [r7, #8]
 80023d4:	687b      	ldr	r3, [r7, #4]
 80023d6:	60fb      	str	r3, [r7, #12]
 80023d8:	68fb      	ldr	r3, [r7, #12]
 80023da:	3301      	adds	r3, #1
 80023dc:	d005      	beq.n	80023ea <HAL_Delay+0x26>
 80023de:	4b0a      	ldr	r3, [pc, #40]	; (8002408 <HAL_Delay+0x44>)
 80023e0:	781b      	ldrb	r3, [r3, #0]
 80023e2:	001a      	movs	r2, r3
 80023e4:	68fb      	ldr	r3, [r7, #12]
 80023e6:	189b      	adds	r3, r3, r2
 80023e8:	60fb      	str	r3, [r7, #12]
 80023ea:	46c0      	nop			; (mov r8, r8)
 80023ec:	f7ff ffe0 	bl	80023b0 <HAL_GetTick>
 80023f0:	0002      	movs	r2, r0
 80023f2:	68bb      	ldr	r3, [r7, #8]
 80023f4:	1ad3      	subs	r3, r2, r3
 80023f6:	68fa      	ldr	r2, [r7, #12]
 80023f8:	429a      	cmp	r2, r3
 80023fa:	d8f7      	bhi.n	80023ec <HAL_Delay+0x28>
 80023fc:	46c0      	nop			; (mov r8, r8)
 80023fe:	46c0      	nop			; (mov r8, r8)
 8002400:	46bd      	mov	sp, r7
 8002402:	b004      	add	sp, #16
 8002404:	bd80      	pop	{r7, pc}
 8002406:	46c0      	nop			; (mov r8, r8)
 8002408:	20000008 	.word	0x20000008

0800240c <__NVIC_EnableIRQ>:
 800240c:	b580      	push	{r7, lr}
 800240e:	b082      	sub	sp, #8
 8002410:	af00      	add	r7, sp, #0
 8002412:	0002      	movs	r2, r0
 8002414:	1dfb      	adds	r3, r7, #7
 8002416:	701a      	strb	r2, [r3, #0]
 8002418:	1dfb      	adds	r3, r7, #7
 800241a:	781b      	ldrb	r3, [r3, #0]
 800241c:	2b7f      	cmp	r3, #127	; 0x7f
 800241e:	d809      	bhi.n	8002434 <__NVIC_EnableIRQ+0x28>
 8002420:	1dfb      	adds	r3, r7, #7
 8002422:	781b      	ldrb	r3, [r3, #0]
 8002424:	001a      	movs	r2, r3
 8002426:	231f      	movs	r3, #31
 8002428:	401a      	ands	r2, r3
 800242a:	4b04      	ldr	r3, [pc, #16]	; (800243c <__NVIC_EnableIRQ+0x30>)
 800242c:	2101      	movs	r1, #1
 800242e:	4091      	lsls	r1, r2
 8002430:	000a      	movs	r2, r1
 8002432:	601a      	str	r2, [r3, #0]
 8002434:	46c0      	nop			; (mov r8, r8)
 8002436:	46bd      	mov	sp, r7
 8002438:	b002      	add	sp, #8
 800243a:	bd80      	pop	{r7, pc}
 800243c:	e000e100 	.word	0xe000e100

08002440 <__NVIC_SetPriority>:
 8002440:	b590      	push	{r4, r7, lr}
 8002442:	b083      	sub	sp, #12
 8002444:	af00      	add	r7, sp, #0
 8002446:	0002      	movs	r2, r0
 8002448:	6039      	str	r1, [r7, #0]
 800244a:	1dfb      	adds	r3, r7, #7
 800244c:	701a      	strb	r2, [r3, #0]
 800244e:	1dfb      	adds	r3, r7, #7
 8002450:	781b      	ldrb	r3, [r3, #0]
 8002452:	2b7f      	cmp	r3, #127	; 0x7f
 8002454:	d828      	bhi.n	80024a8 <__NVIC_SetPriority+0x68>
 8002456:	4a2f      	ldr	r2, [pc, #188]	; (8002514 <__NVIC_SetPriority+0xd4>)
 8002458:	1dfb      	adds	r3, r7, #7
 800245a:	781b      	ldrb	r3, [r3, #0]
 800245c:	b25b      	sxtb	r3, r3
 800245e:	089b      	lsrs	r3, r3, #2
 8002460:	33c0      	adds	r3, #192	; 0xc0
 8002462:	009b      	lsls	r3, r3, #2
 8002464:	589b      	ldr	r3, [r3, r2]
 8002466:	1dfa      	adds	r2, r7, #7
 8002468:	7812      	ldrb	r2, [r2, #0]
 800246a:	0011      	movs	r1, r2
 800246c:	2203      	movs	r2, #3
 800246e:	400a      	ands	r2, r1
 8002470:	00d2      	lsls	r2, r2, #3
 8002472:	21ff      	movs	r1, #255	; 0xff
 8002474:	4091      	lsls	r1, r2
 8002476:	000a      	movs	r2, r1
 8002478:	43d2      	mvns	r2, r2
 800247a:	401a      	ands	r2, r3
 800247c:	0011      	movs	r1, r2
 800247e:	683b      	ldr	r3, [r7, #0]
 8002480:	019b      	lsls	r3, r3, #6
 8002482:	22ff      	movs	r2, #255	; 0xff
 8002484:	401a      	ands	r2, r3
 8002486:	1dfb      	adds	r3, r7, #7
 8002488:	781b      	ldrb	r3, [r3, #0]
 800248a:	0018      	movs	r0, r3
 800248c:	2303      	movs	r3, #3
 800248e:	4003      	ands	r3, r0
 8002490:	00db      	lsls	r3, r3, #3
 8002492:	409a      	lsls	r2, r3
 8002494:	481f      	ldr	r0, [pc, #124]	; (8002514 <__NVIC_SetPriority+0xd4>)
 8002496:	1dfb      	adds	r3, r7, #7
 8002498:	781b      	ldrb	r3, [r3, #0]
 800249a:	b25b      	sxtb	r3, r3
 800249c:	089b      	lsrs	r3, r3, #2
 800249e:	430a      	orrs	r2, r1
 80024a0:	33c0      	adds	r3, #192	; 0xc0
 80024a2:	009b      	lsls	r3, r3, #2
 80024a4:	501a      	str	r2, [r3, r0]
 80024a6:	e031      	b.n	800250c <__NVIC_SetPriority+0xcc>
 80024a8:	4a1b      	ldr	r2, [pc, #108]	; (8002518 <__NVIC_SetPriority+0xd8>)
 80024aa:	1dfb      	adds	r3, r7, #7
 80024ac:	781b      	ldrb	r3, [r3, #0]
 80024ae:	0019      	movs	r1, r3
 80024b0:	230f      	movs	r3, #15
 80024b2:	400b      	ands	r3, r1
 80024b4:	3b08      	subs	r3, #8
 80024b6:	089b      	lsrs	r3, r3, #2
 80024b8:	3306      	adds	r3, #6
 80024ba:	009b      	lsls	r3, r3, #2
 80024bc:	18d3      	adds	r3, r2, r3
 80024be:	3304      	adds	r3, #4
 80024c0:	681b      	ldr	r3, [r3, #0]
 80024c2:	1dfa      	adds	r2, r7, #7
 80024c4:	7812      	ldrb	r2, [r2, #0]
 80024c6:	0011      	movs	r1, r2
 80024c8:	2203      	movs	r2, #3
 80024ca:	400a      	ands	r2, r1
 80024cc:	00d2      	lsls	r2, r2, #3
 80024ce:	21ff      	movs	r1, #255	; 0xff
 80024d0:	4091      	lsls	r1, r2
 80024d2:	000a      	movs	r2, r1
 80024d4:	43d2      	mvns	r2, r2
 80024d6:	401a      	ands	r2, r3
 80024d8:	0011      	movs	r1, r2
 80024da:	683b      	ldr	r3, [r7, #0]
 80024dc:	019b      	lsls	r3, r3, #6
 80024de:	22ff      	movs	r2, #255	; 0xff
 80024e0:	401a      	ands	r2, r3
 80024e2:	1dfb      	adds	r3, r7, #7
 80024e4:	781b      	ldrb	r3, [r3, #0]
 80024e6:	0018      	movs	r0, r3
 80024e8:	2303      	movs	r3, #3
 80024ea:	4003      	ands	r3, r0
 80024ec:	00db      	lsls	r3, r3, #3
 80024ee:	409a      	lsls	r2, r3
 80024f0:	4809      	ldr	r0, [pc, #36]	; (8002518 <__NVIC_SetPriority+0xd8>)
 80024f2:	1dfb      	adds	r3, r7, #7
 80024f4:	781b      	ldrb	r3, [r3, #0]
 80024f6:	001c      	movs	r4, r3
 80024f8:	230f      	movs	r3, #15
 80024fa:	4023      	ands	r3, r4
 80024fc:	3b08      	subs	r3, #8
 80024fe:	089b      	lsrs	r3, r3, #2
 8002500:	430a      	orrs	r2, r1
 8002502:	3306      	adds	r3, #6
 8002504:	009b      	lsls	r3, r3, #2
 8002506:	18c3      	adds	r3, r0, r3
 8002508:	3304      	adds	r3, #4
 800250a:	601a      	str	r2, [r3, #0]
 800250c:	46c0      	nop			; (mov r8, r8)
 800250e:	46bd      	mov	sp, r7
 8002510:	b003      	add	sp, #12
 8002512:	bd90      	pop	{r4, r7, pc}
 8002514:	e000e100 	.word	0xe000e100
 8002518:	e000ed00 	.word	0xe000ed00

0800251c <SysTick_Config>:
 800251c:	b580      	push	{r7, lr}
 800251e:	b082      	sub	sp, #8
 8002520:	af00      	add	r7, sp, #0
 8002522:	6078      	str	r0, [r7, #4]
 8002524:	687b      	ldr	r3, [r7, #4]
 8002526:	1e5a      	subs	r2, r3, #1
 8002528:	2380      	movs	r3, #128	; 0x80
 800252a:	045b      	lsls	r3, r3, #17
 800252c:	429a      	cmp	r2, r3
 800252e:	d301      	bcc.n	8002534 <SysTick_Config+0x18>
 8002530:	2301      	movs	r3, #1
 8002532:	e010      	b.n	8002556 <SysTick_Config+0x3a>
 8002534:	4b0a      	ldr	r3, [pc, #40]	; (8002560 <SysTick_Config+0x44>)
 8002536:	687a      	ldr	r2, [r7, #4]
 8002538:	3a01      	subs	r2, #1
 800253a:	605a      	str	r2, [r3, #4]
 800253c:	2301      	movs	r3, #1
 800253e:	425b      	negs	r3, r3
 8002540:	2103      	movs	r1, #3
 8002542:	0018      	movs	r0, r3
 8002544:	f7ff ff7c 	bl	8002440 <__NVIC_SetPriority>
 8002548:	4b05      	ldr	r3, [pc, #20]	; (8002560 <SysTick_Config+0x44>)
 800254a:	2200      	movs	r2, #0
 800254c:	609a      	str	r2, [r3, #8]
 800254e:	4b04      	ldr	r3, [pc, #16]	; (8002560 <SysTick_Config+0x44>)
 8002550:	2207      	movs	r2, #7
 8002552:	601a      	str	r2, [r3, #0]
 8002554:	2300      	movs	r3, #0
 8002556:	0018      	movs	r0, r3
 8002558:	46bd      	mov	sp, r7
 800255a:	b002      	add	sp, #8
 800255c:	bd80      	pop	{r7, pc}
 800255e:	46c0      	nop			; (mov r8, r8)
 8002560:	e000e010 	.word	0xe000e010

08002564 <HAL_NVIC_SetPriority>:
 8002564:	b580      	push	{r7, lr}
 8002566:	b084      	sub	sp, #16
 8002568:	af00      	add	r7, sp, #0
 800256a:	60b9      	str	r1, [r7, #8]
 800256c:	607a      	str	r2, [r7, #4]
 800256e:	210f      	movs	r1, #15
 8002570:	187b      	adds	r3, r7, r1
 8002572:	1c02      	adds	r2, r0, #0
 8002574:	701a      	strb	r2, [r3, #0]
 8002576:	68ba      	ldr	r2, [r7, #8]
 8002578:	187b      	adds	r3, r7, r1
 800257a:	781b      	ldrb	r3, [r3, #0]
 800257c:	b25b      	sxtb	r3, r3
 800257e:	0011      	movs	r1, r2
 8002580:	0018      	movs	r0, r3
 8002582:	f7ff ff5d 	bl	8002440 <__NVIC_SetPriority>
 8002586:	46c0      	nop			; (mov r8, r8)
 8002588:	46bd      	mov	sp, r7
 800258a:	b004      	add	sp, #16
 800258c:	bd80      	pop	{r7, pc}

0800258e <HAL_NVIC_EnableIRQ>:
 800258e:	b580      	push	{r7, lr}
 8002590:	b082      	sub	sp, #8
 8002592:	af00      	add	r7, sp, #0
 8002594:	0002      	movs	r2, r0
 8002596:	1dfb      	adds	r3, r7, #7
 8002598:	701a      	strb	r2, [r3, #0]
 800259a:	1dfb      	adds	r3, r7, #7
 800259c:	781b      	ldrb	r3, [r3, #0]
 800259e:	b25b      	sxtb	r3, r3
 80025a0:	0018      	movs	r0, r3
 80025a2:	f7ff ff33 	bl	800240c <__NVIC_EnableIRQ>
 80025a6:	46c0      	nop			; (mov r8, r8)
 80025a8:	46bd      	mov	sp, r7
 80025aa:	b002      	add	sp, #8
 80025ac:	bd80      	pop	{r7, pc}

080025ae <HAL_SYSTICK_Config>:
 80025ae:	b580      	push	{r7, lr}
 80025b0:	b082      	sub	sp, #8
 80025b2:	af00      	add	r7, sp, #0
 80025b4:	6078      	str	r0, [r7, #4]
 80025b6:	687b      	ldr	r3, [r7, #4]
 80025b8:	0018      	movs	r0, r3
 80025ba:	f7ff ffaf 	bl	800251c <SysTick_Config>
 80025be:	0003      	movs	r3, r0
 80025c0:	0018      	movs	r0, r3
 80025c2:	46bd      	mov	sp, r7
 80025c4:	b002      	add	sp, #8
 80025c6:	bd80      	pop	{r7, pc}

080025c8 <HAL_DMA_Init>:
 80025c8:	b580      	push	{r7, lr}
 80025ca:	b084      	sub	sp, #16
 80025cc:	af00      	add	r7, sp, #0
 80025ce:	6078      	str	r0, [r7, #4]
 80025d0:	2300      	movs	r3, #0
 80025d2:	60fb      	str	r3, [r7, #12]
 80025d4:	687b      	ldr	r3, [r7, #4]
 80025d6:	2b00      	cmp	r3, #0
 80025d8:	d101      	bne.n	80025de <HAL_DMA_Init+0x16>
 80025da:	2301      	movs	r3, #1
 80025dc:	e036      	b.n	800264c <HAL_DMA_Init+0x84>
 80025de:	687b      	ldr	r3, [r7, #4]
 80025e0:	2221      	movs	r2, #33	; 0x21
 80025e2:	2102      	movs	r1, #2
 80025e4:	5499      	strb	r1, [r3, r2]
 80025e6:	687b      	ldr	r3, [r7, #4]
 80025e8:	681b      	ldr	r3, [r3, #0]
 80025ea:	681b      	ldr	r3, [r3, #0]
 80025ec:	60fb      	str	r3, [r7, #12]
 80025ee:	68fb      	ldr	r3, [r7, #12]
 80025f0:	4a18      	ldr	r2, [pc, #96]	; (8002654 <HAL_DMA_Init+0x8c>)
 80025f2:	4013      	ands	r3, r2
 80025f4:	60fb      	str	r3, [r7, #12]
 80025f6:	687b      	ldr	r3, [r7, #4]
 80025f8:	685a      	ldr	r2, [r3, #4]
 80025fa:	687b      	ldr	r3, [r7, #4]
 80025fc:	689b      	ldr	r3, [r3, #8]
 80025fe:	431a      	orrs	r2, r3
 8002600:	687b      	ldr	r3, [r7, #4]
 8002602:	68db      	ldr	r3, [r3, #12]
 8002604:	431a      	orrs	r2, r3
 8002606:	687b      	ldr	r3, [r7, #4]
 8002608:	691b      	ldr	r3, [r3, #16]
 800260a:	431a      	orrs	r2, r3
 800260c:	687b      	ldr	r3, [r7, #4]
 800260e:	695b      	ldr	r3, [r3, #20]
 8002610:	431a      	orrs	r2, r3
 8002612:	687b      	ldr	r3, [r7, #4]
 8002614:	699b      	ldr	r3, [r3, #24]
 8002616:	431a      	orrs	r2, r3
 8002618:	687b      	ldr	r3, [r7, #4]
 800261a:	69db      	ldr	r3, [r3, #28]
 800261c:	4313      	orrs	r3, r2
 800261e:	68fa      	ldr	r2, [r7, #12]
 8002620:	4313      	orrs	r3, r2
 8002622:	60fb      	str	r3, [r7, #12]
 8002624:	687b      	ldr	r3, [r7, #4]
 8002626:	681b      	ldr	r3, [r3, #0]
 8002628:	68fa      	ldr	r2, [r7, #12]
 800262a:	601a      	str	r2, [r3, #0]
 800262c:	687b      	ldr	r3, [r7, #4]
 800262e:	0018      	movs	r0, r3
 8002630:	f000 f932 	bl	8002898 <DMA_CalcBaseAndBitshift>
 8002634:	687b      	ldr	r3, [r7, #4]
 8002636:	2200      	movs	r2, #0
 8002638:	639a      	str	r2, [r3, #56]	; 0x38
 800263a:	687b      	ldr	r3, [r7, #4]
 800263c:	2221      	movs	r2, #33	; 0x21
 800263e:	2101      	movs	r1, #1
 8002640:	5499      	strb	r1, [r3, r2]
 8002642:	687b      	ldr	r3, [r7, #4]
 8002644:	2220      	movs	r2, #32
 8002646:	2100      	movs	r1, #0
 8002648:	5499      	strb	r1, [r3, r2]
 800264a:	2300      	movs	r3, #0
 800264c:	0018      	movs	r0, r3
 800264e:	46bd      	mov	sp, r7
 8002650:	b004      	add	sp, #16
 8002652:	bd80      	pop	{r7, pc}
 8002654:	ffffc00f 	.word	0xffffc00f

08002658 <HAL_DMA_Abort>:
 8002658:	b580      	push	{r7, lr}
 800265a:	b082      	sub	sp, #8
 800265c:	af00      	add	r7, sp, #0
 800265e:	6078      	str	r0, [r7, #4]
 8002660:	687b      	ldr	r3, [r7, #4]
 8002662:	2221      	movs	r2, #33	; 0x21
 8002664:	5c9b      	ldrb	r3, [r3, r2]
 8002666:	b2db      	uxtb	r3, r3
 8002668:	2b02      	cmp	r3, #2
 800266a:	d008      	beq.n	800267e <HAL_DMA_Abort+0x26>
 800266c:	687b      	ldr	r3, [r7, #4]
 800266e:	2204      	movs	r2, #4
 8002670:	639a      	str	r2, [r3, #56]	; 0x38
 8002672:	687b      	ldr	r3, [r7, #4]
 8002674:	2220      	movs	r2, #32
 8002676:	2100      	movs	r1, #0
 8002678:	5499      	strb	r1, [r3, r2]
 800267a:	2301      	movs	r3, #1
 800267c:	e020      	b.n	80026c0 <HAL_DMA_Abort+0x68>
 800267e:	687b      	ldr	r3, [r7, #4]
 8002680:	681b      	ldr	r3, [r3, #0]
 8002682:	681a      	ldr	r2, [r3, #0]
 8002684:	687b      	ldr	r3, [r7, #4]
 8002686:	681b      	ldr	r3, [r3, #0]
 8002688:	210e      	movs	r1, #14
 800268a:	438a      	bics	r2, r1
 800268c:	601a      	str	r2, [r3, #0]
 800268e:	687b      	ldr	r3, [r7, #4]
 8002690:	681b      	ldr	r3, [r3, #0]
 8002692:	681a      	ldr	r2, [r3, #0]
 8002694:	687b      	ldr	r3, [r7, #4]
 8002696:	681b      	ldr	r3, [r3, #0]
 8002698:	2101      	movs	r1, #1
 800269a:	438a      	bics	r2, r1
 800269c:	601a      	str	r2, [r3, #0]
 800269e:	687b      	ldr	r3, [r7, #4]
 80026a0:	6c1a      	ldr	r2, [r3, #64]	; 0x40
 80026a2:	687b      	ldr	r3, [r7, #4]
 80026a4:	6bdb      	ldr	r3, [r3, #60]	; 0x3c
 80026a6:	2101      	movs	r1, #1
 80026a8:	4091      	lsls	r1, r2
 80026aa:	000a      	movs	r2, r1
 80026ac:	605a      	str	r2, [r3, #4]
 80026ae:	687b      	ldr	r3, [r7, #4]
 80026b0:	2221      	movs	r2, #33	; 0x21
 80026b2:	2101      	movs	r1, #1
 80026b4:	5499      	strb	r1, [r3, r2]
 80026b6:	687b      	ldr	r3, [r7, #4]
 80026b8:	2220      	movs	r2, #32
 80026ba:	2100      	movs	r1, #0
 80026bc:	5499      	strb	r1, [r3, r2]
 80026be:	2300      	movs	r3, #0
 80026c0:	0018      	movs	r0, r3
 80026c2:	46bd      	mov	sp, r7
 80026c4:	b002      	add	sp, #8
 80026c6:	bd80      	pop	{r7, pc}

080026c8 <HAL_DMA_Abort_IT>:
 80026c8:	b580      	push	{r7, lr}
 80026ca:	b084      	sub	sp, #16
 80026cc:	af00      	add	r7, sp, #0
 80026ce:	6078      	str	r0, [r7, #4]
 80026d0:	210f      	movs	r1, #15
 80026d2:	187b      	adds	r3, r7, r1
 80026d4:	2200      	movs	r2, #0
 80026d6:	701a      	strb	r2, [r3, #0]
 80026d8:	687b      	ldr	r3, [r7, #4]
 80026da:	2221      	movs	r2, #33	; 0x21
 80026dc:	5c9b      	ldrb	r3, [r3, r2]
 80026de:	b2db      	uxtb	r3, r3
 80026e0:	2b02      	cmp	r3, #2
 80026e2:	d006      	beq.n	80026f2 <HAL_DMA_Abort_IT+0x2a>
 80026e4:	687b      	ldr	r3, [r7, #4]
 80026e6:	2204      	movs	r2, #4
 80026e8:	639a      	str	r2, [r3, #56]	; 0x38
 80026ea:	187b      	adds	r3, r7, r1
 80026ec:	2201      	movs	r2, #1
 80026ee:	701a      	strb	r2, [r3, #0]
 80026f0:	e028      	b.n	8002744 <HAL_DMA_Abort_IT+0x7c>
 80026f2:	687b      	ldr	r3, [r7, #4]
 80026f4:	681b      	ldr	r3, [r3, #0]
 80026f6:	681a      	ldr	r2, [r3, #0]
 80026f8:	687b      	ldr	r3, [r7, #4]
 80026fa:	681b      	ldr	r3, [r3, #0]
 80026fc:	210e      	movs	r1, #14
 80026fe:	438a      	bics	r2, r1
 8002700:	601a      	str	r2, [r3, #0]
 8002702:	687b      	ldr	r3, [r7, #4]
 8002704:	681b      	ldr	r3, [r3, #0]
 8002706:	681a      	ldr	r2, [r3, #0]
 8002708:	687b      	ldr	r3, [r7, #4]
 800270a:	681b      	ldr	r3, [r3, #0]
 800270c:	2101      	movs	r1, #1
 800270e:	438a      	bics	r2, r1
 8002710:	601a      	str	r2, [r3, #0]
 8002712:	687b      	ldr	r3, [r7, #4]
 8002714:	6c1a      	ldr	r2, [r3, #64]	; 0x40
 8002716:	687b      	ldr	r3, [r7, #4]
 8002718:	6bdb      	ldr	r3, [r3, #60]	; 0x3c
 800271a:	2101      	movs	r1, #1
 800271c:	4091      	lsls	r1, r2
 800271e:	000a      	movs	r2, r1
 8002720:	605a      	str	r2, [r3, #4]
 8002722:	687b      	ldr	r3, [r7, #4]
 8002724:	2221      	movs	r2, #33	; 0x21
 8002726:	2101      	movs	r1, #1
 8002728:	5499      	strb	r1, [r3, r2]
 800272a:	687b      	ldr	r3, [r7, #4]
 800272c:	2220      	movs	r2, #32
 800272e:	2100      	movs	r1, #0
 8002730:	5499      	strb	r1, [r3, r2]
 8002732:	687b      	ldr	r3, [r7, #4]
 8002734:	6b5b      	ldr	r3, [r3, #52]	; 0x34
 8002736:	2b00      	cmp	r3, #0
 8002738:	d004      	beq.n	8002744 <HAL_DMA_Abort_IT+0x7c>
 800273a:	687b      	ldr	r3, [r7, #4]
 800273c:	6b5b      	ldr	r3, [r3, #52]	; 0x34
 800273e:	687a      	ldr	r2, [r7, #4]
 8002740:	0010      	movs	r0, r2
 8002742:	4798      	blx	r3
 8002744:	230f      	movs	r3, #15
 8002746:	18fb      	adds	r3, r7, r3
 8002748:	781b      	ldrb	r3, [r3, #0]
 800274a:	0018      	movs	r0, r3
 800274c:	46bd      	mov	sp, r7
 800274e:	b004      	add	sp, #16
 8002750:	bd80      	pop	{r7, pc}

08002752 <HAL_DMA_IRQHandler>:
 8002752:	b580      	push	{r7, lr}
 8002754:	b084      	sub	sp, #16
 8002756:	af00      	add	r7, sp, #0
 8002758:	6078      	str	r0, [r7, #4]
 800275a:	687b      	ldr	r3, [r7, #4]
 800275c:	6bdb      	ldr	r3, [r3, #60]	; 0x3c
 800275e:	681b      	ldr	r3, [r3, #0]
 8002760:	60fb      	str	r3, [r7, #12]
 8002762:	687b      	ldr	r3, [r7, #4]
 8002764:	681b      	ldr	r3, [r3, #0]
 8002766:	681b      	ldr	r3, [r3, #0]
 8002768:	60bb      	str	r3, [r7, #8]
 800276a:	687b      	ldr	r3, [r7, #4]
 800276c:	6c1b      	ldr	r3, [r3, #64]	; 0x40
 800276e:	2204      	movs	r2, #4
 8002770:	409a      	lsls	r2, r3
 8002772:	0013      	movs	r3, r2
 8002774:	68fa      	ldr	r2, [r7, #12]
 8002776:	4013      	ands	r3, r2
 8002778:	d024      	beq.n	80027c4 <HAL_DMA_IRQHandler+0x72>
 800277a:	68bb      	ldr	r3, [r7, #8]
 800277c:	2204      	movs	r2, #4
 800277e:	4013      	ands	r3, r2
 8002780:	d020      	beq.n	80027c4 <HAL_DMA_IRQHandler+0x72>
 8002782:	687b      	ldr	r3, [r7, #4]
 8002784:	681b      	ldr	r3, [r3, #0]
 8002786:	681b      	ldr	r3, [r3, #0]
 8002788:	2220      	movs	r2, #32
 800278a:	4013      	ands	r3, r2
 800278c:	d107      	bne.n	800279e <HAL_DMA_IRQHandler+0x4c>
 800278e:	687b      	ldr	r3, [r7, #4]
 8002790:	681b      	ldr	r3, [r3, #0]
 8002792:	681a      	ldr	r2, [r3, #0]
 8002794:	687b      	ldr	r3, [r7, #4]
 8002796:	681b      	ldr	r3, [r3, #0]
 8002798:	2104      	movs	r1, #4
 800279a:	438a      	bics	r2, r1
 800279c:	601a      	str	r2, [r3, #0]
 800279e:	687b      	ldr	r3, [r7, #4]
 80027a0:	6c1a      	ldr	r2, [r3, #64]	; 0x40
 80027a2:	687b      	ldr	r3, [r7, #4]
 80027a4:	6bdb      	ldr	r3, [r3, #60]	; 0x3c
 80027a6:	2104      	movs	r1, #4
 80027a8:	4091      	lsls	r1, r2
 80027aa:	000a      	movs	r2, r1
 80027ac:	605a      	str	r2, [r3, #4]
 80027ae:	687b      	ldr	r3, [r7, #4]
 80027b0:	6adb      	ldr	r3, [r3, #44]	; 0x2c
 80027b2:	2b00      	cmp	r3, #0
 80027b4:	d100      	bne.n	80027b8 <HAL_DMA_IRQHandler+0x66>
 80027b6:	e06a      	b.n	800288e <HAL_DMA_IRQHandler+0x13c>
 80027b8:	687b      	ldr	r3, [r7, #4]
 80027ba:	6adb      	ldr	r3, [r3, #44]	; 0x2c
 80027bc:	687a      	ldr	r2, [r7, #4]
 80027be:	0010      	movs	r0, r2
 80027c0:	4798      	blx	r3
 80027c2:	e064      	b.n	800288e <HAL_DMA_IRQHandler+0x13c>
 80027c4:	687b      	ldr	r3, [r7, #4]
 80027c6:	6c1b      	ldr	r3, [r3, #64]	; 0x40
 80027c8:	2202      	movs	r2, #2
 80027ca:	409a      	lsls	r2, r3
 80027cc:	0013      	movs	r3, r2
 80027ce:	68fa      	ldr	r2, [r7, #12]
 80027d0:	4013      	ands	r3, r2
 80027d2:	d02b      	beq.n	800282c <HAL_DMA_IRQHandler+0xda>
 80027d4:	68bb      	ldr	r3, [r7, #8]
 80027d6:	2202      	movs	r2, #2
 80027d8:	4013      	ands	r3, r2
 80027da:	d027      	beq.n	800282c <HAL_DMA_IRQHandler+0xda>
 80027dc:	687b      	ldr	r3, [r7, #4]
 80027de:	681b      	ldr	r3, [r3, #0]
 80027e0:	681b      	ldr	r3, [r3, #0]
 80027e2:	2220      	movs	r2, #32
 80027e4:	4013      	ands	r3, r2
 80027e6:	d10b      	bne.n	8002800 <HAL_DMA_IRQHandler+0xae>
 80027e8:	687b      	ldr	r3, [r7, #4]
 80027ea:	681b      	ldr	r3, [r3, #0]
 80027ec:	681a      	ldr	r2, [r3, #0]
 80027ee:	687b      	ldr	r3, [r7, #4]
 80027f0:	681b      	ldr	r3, [r3, #0]
 80027f2:	210a      	movs	r1, #10
 80027f4:	438a      	bics	r2, r1
 80027f6:	601a      	str	r2, [r3, #0]
 80027f8:	687b      	ldr	r3, [r7, #4]
 80027fa:	2221      	movs	r2, #33	; 0x21
 80027fc:	2101      	movs	r1, #1
 80027fe:	5499      	strb	r1, [r3, r2]
 8002800:	687b      	ldr	r3, [r7, #4]
 8002802:	6c1a      	ldr	r2, [r3, #64]	; 0x40
 8002804:	687b      	ldr	r3, [r7, #4]
 8002806:	6bdb      	ldr	r3, [r3, #60]	; 0x3c
 8002808:	2102      	movs	r1, #2
 800280a:	4091      	lsls	r1, r2
 800280c:	000a      	movs	r2, r1
 800280e:	605a      	str	r2, [r3, #4]
 8002810:	687b      	ldr	r3, [r7, #4]
 8002812:	2220      	movs	r2, #32
 8002814:	2100      	movs	r1, #0
 8002816:	5499      	strb	r1, [r3, r2]
 8002818:	687b      	ldr	r3, [r7, #4]
 800281a:	6a9b      	ldr	r3, [r3, #40]	; 0x28
 800281c:	2b00      	cmp	r3, #0
 800281e:	d036      	beq.n	800288e <HAL_DMA_IRQHandler+0x13c>
 8002820:	687b      	ldr	r3, [r7, #4]
 8002822:	6a9b      	ldr	r3, [r3, #40]	; 0x28
 8002824:	687a      	ldr	r2, [r7, #4]
 8002826:	0010      	movs	r0, r2
 8002828:	4798      	blx	r3
 800282a:	e030      	b.n	800288e <HAL_DMA_IRQHandler+0x13c>
 800282c:	687b      	ldr	r3, [r7, #4]
 800282e:	6c1b      	ldr	r3, [r3, #64]	; 0x40
 8002830:	2208      	movs	r2, #8
 8002832:	409a      	lsls	r2, r3
 8002834:	0013      	movs	r3, r2
 8002836:	68fa      	ldr	r2, [r7, #12]
 8002838:	4013      	ands	r3, r2
 800283a:	d028      	beq.n	800288e <HAL_DMA_IRQHandler+0x13c>
 800283c:	68bb      	ldr	r3, [r7, #8]
 800283e:	2208      	movs	r2, #8
 8002840:	4013      	ands	r3, r2
 8002842:	d024      	beq.n	800288e <HAL_DMA_IRQHandler+0x13c>
 8002844:	687b      	ldr	r3, [r7, #4]
 8002846:	681b      	ldr	r3, [r3, #0]
 8002848:	681a      	ldr	r2, [r3, #0]
 800284a:	687b      	ldr	r3, [r7, #4]
 800284c:	681b      	ldr	r3, [r3, #0]
 800284e:	210e      	movs	r1, #14
 8002850:	438a      	bics	r2, r1
 8002852:	601a      	str	r2, [r3, #0]
 8002854:	687b      	ldr	r3, [r7, #4]
 8002856:	6c1a      	ldr	r2, [r3, #64]	; 0x40
 8002858:	687b      	ldr	r3, [r7, #4]
 800285a:	6bdb      	ldr	r3, [r3, #60]	; 0x3c
 800285c:	2101      	movs	r1, #1
 800285e:	4091      	lsls	r1, r2
 8002860:	000a      	movs	r2, r1
 8002862:	605a      	str	r2, [r3, #4]
 8002864:	687b      	ldr	r3, [r7, #4]
 8002866:	2201      	movs	r2, #1
 8002868:	639a      	str	r2, [r3, #56]	; 0x38
 800286a:	687b      	ldr	r3, [r7, #4]
 800286c:	2221      	movs	r2, #33	; 0x21
 800286e:	2101      	movs	r1, #1
 8002870:	5499      	strb	r1, [r3, r2]
 8002872:	687b      	ldr	r3, [r7, #4]
 8002874:	2220      	movs	r2, #32
 8002876:	2100      	movs	r1, #0
 8002878:	5499      	strb	r1, [r3, r2]
 800287a:	687b      	ldr	r3, [r7, #4]
 800287c:	6b1b      	ldr	r3, [r3, #48]	; 0x30
 800287e:	2b00      	cmp	r3, #0
 8002880:	d005      	beq.n	800288e <HAL_DMA_IRQHandler+0x13c>
 8002882:	687b      	ldr	r3, [r7, #4]
 8002884:	6b1b      	ldr	r3, [r3, #48]	; 0x30
 8002886:	687a      	ldr	r2, [r7, #4]
 8002888:	0010      	movs	r0, r2
 800288a:	4798      	blx	r3
 800288c:	e7ff      	b.n	800288e <HAL_DMA_IRQHandler+0x13c>
 800288e:	46c0      	nop			; (mov r8, r8)
 8002890:	46bd      	mov	sp, r7
 8002892:	b004      	add	sp, #16
 8002894:	bd80      	pop	{r7, pc}
	...

08002898 <DMA_CalcBaseAndBitshift>:
 8002898:	b580      	push	{r7, lr}
 800289a:	b082      	sub	sp, #8
 800289c:	af00      	add	r7, sp, #0
 800289e:	6078      	str	r0, [r7, #4]
 80028a0:	687b      	ldr	r3, [r7, #4]
 80028a2:	681b      	ldr	r3, [r3, #0]
 80028a4:	4a08      	ldr	r2, [pc, #32]	; (80028c8 <DMA_CalcBaseAndBitshift+0x30>)
 80028a6:	4694      	mov	ip, r2
 80028a8:	4463      	add	r3, ip
 80028aa:	2114      	movs	r1, #20
 80028ac:	0018      	movs	r0, r3
 80028ae:	f7fd fc33 	bl	8000118 <__udivsi3>
 80028b2:	0003      	movs	r3, r0
 80028b4:	009a      	lsls	r2, r3, #2
 80028b6:	687b      	ldr	r3, [r7, #4]
 80028b8:	641a      	str	r2, [r3, #64]	; 0x40
 80028ba:	687b      	ldr	r3, [r7, #4]
 80028bc:	4a03      	ldr	r2, [pc, #12]	; (80028cc <DMA_CalcBaseAndBitshift+0x34>)
 80028be:	63da      	str	r2, [r3, #60]	; 0x3c
 80028c0:	46c0      	nop			; (mov r8, r8)
 80028c2:	46bd      	mov	sp, r7
 80028c4:	b002      	add	sp, #8
 80028c6:	bd80      	pop	{r7, pc}
 80028c8:	bffdfff8 	.word	0xbffdfff8
 80028cc:	40020000 	.word	0x40020000

080028d0 <HAL_GPIO_Init>:
 80028d0:	b580      	push	{r7, lr}
 80028d2:	b086      	sub	sp, #24
 80028d4:	af00      	add	r7, sp, #0
 80028d6:	6078      	str	r0, [r7, #4]
 80028d8:	6039      	str	r1, [r7, #0]
 80028da:	2300      	movs	r3, #0
 80028dc:	617b      	str	r3, [r7, #20]
 80028de:	e14f      	b.n	8002b80 <HAL_GPIO_Init+0x2b0>
 80028e0:	683b      	ldr	r3, [r7, #0]
 80028e2:	681b      	ldr	r3, [r3, #0]
 80028e4:	2101      	movs	r1, #1
 80028e6:	697a      	ldr	r2, [r7, #20]
 80028e8:	4091      	lsls	r1, r2
 80028ea:	000a      	movs	r2, r1
 80028ec:	4013      	ands	r3, r2
 80028ee:	60fb      	str	r3, [r7, #12]
 80028f0:	68fb      	ldr	r3, [r7, #12]
 80028f2:	2b00      	cmp	r3, #0
 80028f4:	d100      	bne.n	80028f8 <HAL_GPIO_Init+0x28>
 80028f6:	e140      	b.n	8002b7a <HAL_GPIO_Init+0x2aa>
 80028f8:	683b      	ldr	r3, [r7, #0]
 80028fa:	685b      	ldr	r3, [r3, #4]
 80028fc:	2203      	movs	r2, #3
 80028fe:	4013      	ands	r3, r2
 8002900:	2b01      	cmp	r3, #1
 8002902:	d005      	beq.n	8002910 <HAL_GPIO_Init+0x40>
 8002904:	683b      	ldr	r3, [r7, #0]
 8002906:	685b      	ldr	r3, [r3, #4]
 8002908:	2203      	movs	r2, #3
 800290a:	4013      	ands	r3, r2
 800290c:	2b02      	cmp	r3, #2
 800290e:	d130      	bne.n	8002972 <HAL_GPIO_Init+0xa2>
 8002910:	687b      	ldr	r3, [r7, #4]
 8002912:	689b      	ldr	r3, [r3, #8]
 8002914:	613b      	str	r3, [r7, #16]
 8002916:	697b      	ldr	r3, [r7, #20]
 8002918:	005b      	lsls	r3, r3, #1
 800291a:	2203      	movs	r2, #3
 800291c:	409a      	lsls	r2, r3
 800291e:	0013      	movs	r3, r2
 8002920:	43da      	mvns	r2, r3
 8002922:	693b      	ldr	r3, [r7, #16]
 8002924:	4013      	ands	r3, r2
 8002926:	613b      	str	r3, [r7, #16]
 8002928:	683b      	ldr	r3, [r7, #0]
 800292a:	68da      	ldr	r2, [r3, #12]
 800292c:	697b      	ldr	r3, [r7, #20]
 800292e:	005b      	lsls	r3, r3, #1
 8002930:	409a      	lsls	r2, r3
 8002932:	0013      	movs	r3, r2
 8002934:	693a      	ldr	r2, [r7, #16]
 8002936:	4313      	orrs	r3, r2
 8002938:	613b      	str	r3, [r7, #16]
 800293a:	687b      	ldr	r3, [r7, #4]
 800293c:	693a      	ldr	r2, [r7, #16]
 800293e:	609a      	str	r2, [r3, #8]
 8002940:	687b      	ldr	r3, [r7, #4]
 8002942:	685b      	ldr	r3, [r3, #4]
 8002944:	613b      	str	r3, [r7, #16]
 8002946:	2201      	movs	r2, #1
 8002948:	697b      	ldr	r3, [r7, #20]
 800294a:	409a      	lsls	r2, r3
 800294c:	0013      	movs	r3, r2
 800294e:	43da      	mvns	r2, r3
 8002950:	693b      	ldr	r3, [r7, #16]
 8002952:	4013      	ands	r3, r2
 8002954:	613b      	str	r3, [r7, #16]
 8002956:	683b      	ldr	r3, [r7, #0]
 8002958:	685b      	ldr	r3, [r3, #4]
 800295a:	091b      	lsrs	r3, r3, #4
 800295c:	2201      	movs	r2, #1
 800295e:	401a      	ands	r2, r3
 8002960:	697b      	ldr	r3, [r7, #20]
 8002962:	409a      	lsls	r2, r3
 8002964:	0013      	movs	r3, r2
 8002966:	693a      	ldr	r2, [r7, #16]
 8002968:	4313      	orrs	r3, r2
 800296a:	613b      	str	r3, [r7, #16]
 800296c:	687b      	ldr	r3, [r7, #4]
 800296e:	693a      	ldr	r2, [r7, #16]
 8002970:	605a      	str	r2, [r3, #4]
 8002972:	683b      	ldr	r3, [r7, #0]
 8002974:	685b      	ldr	r3, [r3, #4]
 8002976:	2203      	movs	r2, #3
 8002978:	4013      	ands	r3, r2
 800297a:	2b03      	cmp	r3, #3
 800297c:	d017      	beq.n	80029ae <HAL_GPIO_Init+0xde>
 800297e:	687b      	ldr	r3, [r7, #4]
 8002980:	68db      	ldr	r3, [r3, #12]
 8002982:	613b      	str	r3, [r7, #16]
 8002984:	697b      	ldr	r3, [r7, #20]
 8002986:	005b      	lsls	r3, r3, #1
 8002988:	2203      	movs	r2, #3
 800298a:	409a      	lsls	r2, r3
 800298c:	0013      	movs	r3, r2
 800298e:	43da      	mvns	r2, r3
 8002990:	693b      	ldr	r3, [r7, #16]
 8002992:	4013      	ands	r3, r2
 8002994:	613b      	str	r3, [r7, #16]
 8002996:	683b      	ldr	r3, [r7, #0]
 8002998:	689a      	ldr	r2, [r3, #8]
 800299a:	697b      	ldr	r3, [r7, #20]
 800299c:	005b      	lsls	r3, r3, #1
 800299e:	409a      	lsls	r2, r3
 80029a0:	0013      	movs	r3, r2
 80029a2:	693a      	ldr	r2, [r7, #16]
 80029a4:	4313      	orrs	r3, r2
 80029a6:	613b      	str	r3, [r7, #16]
 80029a8:	687b      	ldr	r3, [r7, #4]
 80029aa:	693a      	ldr	r2, [r7, #16]
 80029ac:	60da      	str	r2, [r3, #12]
 80029ae:	683b      	ldr	r3, [r7, #0]
 80029b0:	685b      	ldr	r3, [r3, #4]
 80029b2:	2203      	movs	r2, #3
 80029b4:	4013      	ands	r3, r2
 80029b6:	2b02      	cmp	r3, #2
 80029b8:	d123      	bne.n	8002a02 <HAL_GPIO_Init+0x132>
 80029ba:	697b      	ldr	r3, [r7, #20]
 80029bc:	08da      	lsrs	r2, r3, #3
 80029be:	687b      	ldr	r3, [r7, #4]
 80029c0:	3208      	adds	r2, #8
 80029c2:	0092      	lsls	r2, r2, #2
 80029c4:	58d3      	ldr	r3, [r2, r3]
 80029c6:	613b      	str	r3, [r7, #16]
 80029c8:	697b      	ldr	r3, [r7, #20]
 80029ca:	2207      	movs	r2, #7
 80029cc:	4013      	ands	r3, r2
 80029ce:	009b      	lsls	r3, r3, #2
 80029d0:	220f      	movs	r2, #15
 80029d2:	409a      	lsls	r2, r3
 80029d4:	0013      	movs	r3, r2
 80029d6:	43da      	mvns	r2, r3
 80029d8:	693b      	ldr	r3, [r7, #16]
 80029da:	4013      	ands	r3, r2
 80029dc:	613b      	str	r3, [r7, #16]
 80029de:	683b      	ldr	r3, [r7, #0]
 80029e0:	691a      	ldr	r2, [r3, #16]
 80029e2:	697b      	ldr	r3, [r7, #20]
 80029e4:	2107      	movs	r1, #7
 80029e6:	400b      	ands	r3, r1
 80029e8:	009b      	lsls	r3, r3, #2
 80029ea:	409a      	lsls	r2, r3
 80029ec:	0013      	movs	r3, r2
 80029ee:	693a      	ldr	r2, [r7, #16]
 80029f0:	4313      	orrs	r3, r2
 80029f2:	613b      	str	r3, [r7, #16]
 80029f4:	697b      	ldr	r3, [r7, #20]
 80029f6:	08da      	lsrs	r2, r3, #3
 80029f8:	687b      	ldr	r3, [r7, #4]
 80029fa:	3208      	adds	r2, #8
 80029fc:	0092      	lsls	r2, r2, #2
 80029fe:	6939      	ldr	r1, [r7, #16]
 8002a00:	50d1      	str	r1, [r2, r3]
 8002a02:	687b      	ldr	r3, [r7, #4]
 8002a04:	681b      	ldr	r3, [r3, #0]
 8002a06:	613b      	str	r3, [r7, #16]
 8002a08:	697b      	ldr	r3, [r7, #20]
 8002a0a:	005b      	lsls	r3, r3, #1
 8002a0c:	2203      	movs	r2, #3
 8002a0e:	409a      	lsls	r2, r3
 8002a10:	0013      	movs	r3, r2
 8002a12:	43da      	mvns	r2, r3
 8002a14:	693b      	ldr	r3, [r7, #16]
 8002a16:	4013      	ands	r3, r2
 8002a18:	613b      	str	r3, [r7, #16]
 8002a1a:	683b      	ldr	r3, [r7, #0]
 8002a1c:	685b      	ldr	r3, [r3, #4]
 8002a1e:	2203      	movs	r2, #3
 8002a20:	401a      	ands	r2, r3
 8002a22:	697b      	ldr	r3, [r7, #20]
 8002a24:	005b      	lsls	r3, r3, #1
 8002a26:	409a      	lsls	r2, r3
 8002a28:	0013      	movs	r3, r2
 8002a2a:	693a      	ldr	r2, [r7, #16]
 8002a2c:	4313      	orrs	r3, r2
 8002a2e:	613b      	str	r3, [r7, #16]
 8002a30:	687b      	ldr	r3, [r7, #4]
 8002a32:	693a      	ldr	r2, [r7, #16]
 8002a34:	601a      	str	r2, [r3, #0]
 8002a36:	683b      	ldr	r3, [r7, #0]
 8002a38:	685a      	ldr	r2, [r3, #4]
 8002a3a:	23c0      	movs	r3, #192	; 0xc0
 8002a3c:	029b      	lsls	r3, r3, #10
 8002a3e:	4013      	ands	r3, r2
 8002a40:	d100      	bne.n	8002a44 <HAL_GPIO_Init+0x174>
 8002a42:	e09a      	b.n	8002b7a <HAL_GPIO_Init+0x2aa>
 8002a44:	4b54      	ldr	r3, [pc, #336]	; (8002b98 <HAL_GPIO_Init+0x2c8>)
 8002a46:	699a      	ldr	r2, [r3, #24]
 8002a48:	4b53      	ldr	r3, [pc, #332]	; (8002b98 <HAL_GPIO_Init+0x2c8>)
 8002a4a:	2101      	movs	r1, #1
 8002a4c:	430a      	orrs	r2, r1
 8002a4e:	619a      	str	r2, [r3, #24]
 8002a50:	4b51      	ldr	r3, [pc, #324]	; (8002b98 <HAL_GPIO_Init+0x2c8>)
 8002a52:	699b      	ldr	r3, [r3, #24]
 8002a54:	2201      	movs	r2, #1
 8002a56:	4013      	ands	r3, r2
 8002a58:	60bb      	str	r3, [r7, #8]
 8002a5a:	68bb      	ldr	r3, [r7, #8]
 8002a5c:	4a4f      	ldr	r2, [pc, #316]	; (8002b9c <HAL_GPIO_Init+0x2cc>)
 8002a5e:	697b      	ldr	r3, [r7, #20]
 8002a60:	089b      	lsrs	r3, r3, #2
 8002a62:	3302      	adds	r3, #2
 8002a64:	009b      	lsls	r3, r3, #2
 8002a66:	589b      	ldr	r3, [r3, r2]
 8002a68:	613b      	str	r3, [r7, #16]
 8002a6a:	697b      	ldr	r3, [r7, #20]
 8002a6c:	2203      	movs	r2, #3
 8002a6e:	4013      	ands	r3, r2
 8002a70:	009b      	lsls	r3, r3, #2
 8002a72:	220f      	movs	r2, #15
 8002a74:	409a      	lsls	r2, r3
 8002a76:	0013      	movs	r3, r2
 8002a78:	43da      	mvns	r2, r3
 8002a7a:	693b      	ldr	r3, [r7, #16]
 8002a7c:	4013      	ands	r3, r2
 8002a7e:	613b      	str	r3, [r7, #16]
 8002a80:	687a      	ldr	r2, [r7, #4]
 8002a82:	2390      	movs	r3, #144	; 0x90
 8002a84:	05db      	lsls	r3, r3, #23
 8002a86:	429a      	cmp	r2, r3
 8002a88:	d013      	beq.n	8002ab2 <HAL_GPIO_Init+0x1e2>
 8002a8a:	687b      	ldr	r3, [r7, #4]
 8002a8c:	4a44      	ldr	r2, [pc, #272]	; (8002ba0 <HAL_GPIO_Init+0x2d0>)
 8002a8e:	4293      	cmp	r3, r2
 8002a90:	d00d      	beq.n	8002aae <HAL_GPIO_Init+0x1de>
 8002a92:	687b      	ldr	r3, [r7, #4]
 8002a94:	4a43      	ldr	r2, [pc, #268]	; (8002ba4 <HAL_GPIO_Init+0x2d4>)
 8002a96:	4293      	cmp	r3, r2
 8002a98:	d007      	beq.n	8002aaa <HAL_GPIO_Init+0x1da>
 8002a9a:	687b      	ldr	r3, [r7, #4]
 8002a9c:	4a42      	ldr	r2, [pc, #264]	; (8002ba8 <HAL_GPIO_Init+0x2d8>)
 8002a9e:	4293      	cmp	r3, r2
 8002aa0:	d101      	bne.n	8002aa6 <HAL_GPIO_Init+0x1d6>
 8002aa2:	2303      	movs	r3, #3
 8002aa4:	e006      	b.n	8002ab4 <HAL_GPIO_Init+0x1e4>
 8002aa6:	2305      	movs	r3, #5
 8002aa8:	e004      	b.n	8002ab4 <HAL_GPIO_Init+0x1e4>
 8002aaa:	2302      	movs	r3, #2
 8002aac:	e002      	b.n	8002ab4 <HAL_GPIO_Init+0x1e4>
 8002aae:	2301      	movs	r3, #1
 8002ab0:	e000      	b.n	8002ab4 <HAL_GPIO_Init+0x1e4>
 8002ab2:	2300      	movs	r3, #0
 8002ab4:	697a      	ldr	r2, [r7, #20]
 8002ab6:	2103      	movs	r1, #3
 8002ab8:	400a      	ands	r2, r1
 8002aba:	0092      	lsls	r2, r2, #2
 8002abc:	4093      	lsls	r3, r2
 8002abe:	693a      	ldr	r2, [r7, #16]
 8002ac0:	4313      	orrs	r3, r2
 8002ac2:	613b      	str	r3, [r7, #16]
 8002ac4:	4935      	ldr	r1, [pc, #212]	; (8002b9c <HAL_GPIO_Init+0x2cc>)
 8002ac6:	697b      	ldr	r3, [r7, #20]
 8002ac8:	089b      	lsrs	r3, r3, #2
 8002aca:	3302      	adds	r3, #2
 8002acc:	009b      	lsls	r3, r3, #2
 8002ace:	693a      	ldr	r2, [r7, #16]
 8002ad0:	505a      	str	r2, [r3, r1]
 8002ad2:	4b36      	ldr	r3, [pc, #216]	; (8002bac <HAL_GPIO_Init+0x2dc>)
 8002ad4:	681b      	ldr	r3, [r3, #0]
 8002ad6:	613b      	str	r3, [r7, #16]
 8002ad8:	68fb      	ldr	r3, [r7, #12]
 8002ada:	43da      	mvns	r2, r3
 8002adc:	693b      	ldr	r3, [r7, #16]
 8002ade:	4013      	ands	r3, r2
 8002ae0:	613b      	str	r3, [r7, #16]
 8002ae2:	683b      	ldr	r3, [r7, #0]
 8002ae4:	685a      	ldr	r2, [r3, #4]
 8002ae6:	2380      	movs	r3, #128	; 0x80
 8002ae8:	025b      	lsls	r3, r3, #9
 8002aea:	4013      	ands	r3, r2
 8002aec:	d003      	beq.n	8002af6 <HAL_GPIO_Init+0x226>
 8002aee:	693a      	ldr	r2, [r7, #16]
 8002af0:	68fb      	ldr	r3, [r7, #12]
 8002af2:	4313      	orrs	r3, r2
 8002af4:	613b      	str	r3, [r7, #16]
 8002af6:	4b2d      	ldr	r3, [pc, #180]	; (8002bac <HAL_GPIO_Init+0x2dc>)
 8002af8:	693a      	ldr	r2, [r7, #16]
 8002afa:	601a      	str	r2, [r3, #0]
 8002afc:	4b2b      	ldr	r3, [pc, #172]	; (8002bac <HAL_GPIO_Init+0x2dc>)
 8002afe:	685b      	ldr	r3, [r3, #4]
 8002b00:	613b      	str	r3, [r7, #16]
 8002b02:	68fb      	ldr	r3, [r7, #12]
 8002b04:	43da      	mvns	r2, r3
 8002b06:	693b      	ldr	r3, [r7, #16]
 8002b08:	4013      	ands	r3, r2
 8002b0a:	613b      	str	r3, [r7, #16]
 8002b0c:	683b      	ldr	r3, [r7, #0]
 8002b0e:	685a      	ldr	r2, [r3, #4]
 8002b10:	2380      	movs	r3, #128	; 0x80
 8002b12:	029b      	lsls	r3, r3, #10
 8002b14:	4013      	ands	r3, r2
 8002b16:	d003      	beq.n	8002b20 <HAL_GPIO_Init+0x250>
 8002b18:	693a      	ldr	r2, [r7, #16]
 8002b1a:	68fb      	ldr	r3, [r7, #12]
 8002b1c:	4313      	orrs	r3, r2
 8002b1e:	613b      	str	r3, [r7, #16]
 8002b20:	4b22      	ldr	r3, [pc, #136]	; (8002bac <HAL_GPIO_Init+0x2dc>)
 8002b22:	693a      	ldr	r2, [r7, #16]
 8002b24:	605a      	str	r2, [r3, #4]
 8002b26:	4b21      	ldr	r3, [pc, #132]	; (8002bac <HAL_GPIO_Init+0x2dc>)
 8002b28:	689b      	ldr	r3, [r3, #8]
 8002b2a:	613b      	str	r3, [r7, #16]
 8002b2c:	68fb      	ldr	r3, [r7, #12]
 8002b2e:	43da      	mvns	r2, r3
 8002b30:	693b      	ldr	r3, [r7, #16]
 8002b32:	4013      	ands	r3, r2
 8002b34:	613b      	str	r3, [r7, #16]
 8002b36:	683b      	ldr	r3, [r7, #0]
 8002b38:	685a      	ldr	r2, [r3, #4]
 8002b3a:	2380      	movs	r3, #128	; 0x80
 8002b3c:	035b      	lsls	r3, r3, #13
 8002b3e:	4013      	ands	r3, r2
 8002b40:	d003      	beq.n	8002b4a <HAL_GPIO_Init+0x27a>
 8002b42:	693a      	ldr	r2, [r7, #16]
 8002b44:	68fb      	ldr	r3, [r7, #12]
 8002b46:	4313      	orrs	r3, r2
 8002b48:	613b      	str	r3, [r7, #16]
 8002b4a:	4b18      	ldr	r3, [pc, #96]	; (8002bac <HAL_GPIO_Init+0x2dc>)
 8002b4c:	693a      	ldr	r2, [r7, #16]
 8002b4e:	609a      	str	r2, [r3, #8]
 8002b50:	4b16      	ldr	r3, [pc, #88]	; (8002bac <HAL_GPIO_Init+0x2dc>)
 8002b52:	68db      	ldr	r3, [r3, #12]
 8002b54:	613b      	str	r3, [r7, #16]
 8002b56:	68fb      	ldr	r3, [r7, #12]
 8002b58:	43da      	mvns	r2, r3
 8002b5a:	693b      	ldr	r3, [r7, #16]
 8002b5c:	4013      	ands	r3, r2
 8002b5e:	613b      	str	r3, [r7, #16]
 8002b60:	683b      	ldr	r3, [r7, #0]
 8002b62:	685a      	ldr	r2, [r3, #4]
 8002b64:	2380      	movs	r3, #128	; 0x80
 8002b66:	039b      	lsls	r3, r3, #14
 8002b68:	4013      	ands	r3, r2
 8002b6a:	d003      	beq.n	8002b74 <HAL_GPIO_Init+0x2a4>
 8002b6c:	693a      	ldr	r2, [r7, #16]
 8002b6e:	68fb      	ldr	r3, [r7, #12]
 8002b70:	4313      	orrs	r3, r2
 8002b72:	613b      	str	r3, [r7, #16]
 8002b74:	4b0d      	ldr	r3, [pc, #52]	; (8002bac <HAL_GPIO_Init+0x2dc>)
 8002b76:	693a      	ldr	r2, [r7, #16]
 8002b78:	60da      	str	r2, [r3, #12]
 8002b7a:	697b      	ldr	r3, [r7, #20]
 8002b7c:	3301      	adds	r3, #1
 8002b7e:	617b      	str	r3, [r7, #20]
 8002b80:	683b      	ldr	r3, [r7, #0]
 8002b82:	681a      	ldr	r2, [r3, #0]
 8002b84:	697b      	ldr	r3, [r7, #20]
 8002b86:	40da      	lsrs	r2, r3
 8002b88:	1e13      	subs	r3, r2, #0
 8002b8a:	d000      	beq.n	8002b8e <HAL_GPIO_Init+0x2be>
 8002b8c:	e6a8      	b.n	80028e0 <HAL_GPIO_Init+0x10>
 8002b8e:	46c0      	nop			; (mov r8, r8)
 8002b90:	46c0      	nop			; (mov r8, r8)
 8002b92:	46bd      	mov	sp, r7
 8002b94:	b006      	add	sp, #24
 8002b96:	bd80      	pop	{r7, pc}
 8002b98:	40021000 	.word	0x40021000
 8002b9c:	40010000 	.word	0x40010000
 8002ba0:	48000400 	.word	0x48000400
 8002ba4:	48000800 	.word	0x48000800
 8002ba8:	48000c00 	.word	0x48000c00
 8002bac:	40010400 	.word	0x40010400

08002bb0 <HAL_GPIO_WritePin>:
 8002bb0:	b580      	push	{r7, lr}
 8002bb2:	b082      	sub	sp, #8
 8002bb4:	af00      	add	r7, sp, #0
 8002bb6:	6078      	str	r0, [r7, #4]
 8002bb8:	0008      	movs	r0, r1
 8002bba:	0011      	movs	r1, r2
 8002bbc:	1cbb      	adds	r3, r7, #2
 8002bbe:	1c02      	adds	r2, r0, #0
 8002bc0:	801a      	strh	r2, [r3, #0]
 8002bc2:	1c7b      	adds	r3, r7, #1
 8002bc4:	1c0a      	adds	r2, r1, #0
 8002bc6:	701a      	strb	r2, [r3, #0]
 8002bc8:	1c7b      	adds	r3, r7, #1
 8002bca:	781b      	ldrb	r3, [r3, #0]
 8002bcc:	2b00      	cmp	r3, #0
 8002bce:	d004      	beq.n	8002bda <HAL_GPIO_WritePin+0x2a>
 8002bd0:	1cbb      	adds	r3, r7, #2
 8002bd2:	881a      	ldrh	r2, [r3, #0]
 8002bd4:	687b      	ldr	r3, [r7, #4]
 8002bd6:	619a      	str	r2, [r3, #24]
 8002bd8:	e003      	b.n	8002be2 <HAL_GPIO_WritePin+0x32>
 8002bda:	1cbb      	adds	r3, r7, #2
 8002bdc:	881a      	ldrh	r2, [r3, #0]
 8002bde:	687b      	ldr	r3, [r7, #4]
 8002be0:	629a      	str	r2, [r3, #40]	; 0x28
 8002be2:	46c0      	nop			; (mov r8, r8)
 8002be4:	46bd      	mov	sp, r7
 8002be6:	b002      	add	sp, #8
 8002be8:	bd80      	pop	{r7, pc}

08002bea <HAL_GPIO_TogglePin>:
 8002bea:	b580      	push	{r7, lr}
 8002bec:	b084      	sub	sp, #16
 8002bee:	af00      	add	r7, sp, #0
 8002bf0:	6078      	str	r0, [r7, #4]
 8002bf2:	000a      	movs	r2, r1
 8002bf4:	1cbb      	adds	r3, r7, #2
 8002bf6:	801a      	strh	r2, [r3, #0]
 8002bf8:	687b      	ldr	r3, [r7, #4]
 8002bfa:	695b      	ldr	r3, [r3, #20]
 8002bfc:	60fb      	str	r3, [r7, #12]
 8002bfe:	1cbb      	adds	r3, r7, #2
 8002c00:	881b      	ldrh	r3, [r3, #0]
 8002c02:	68fa      	ldr	r2, [r7, #12]
 8002c04:	4013      	ands	r3, r2
 8002c06:	041a      	lsls	r2, r3, #16
 8002c08:	68fb      	ldr	r3, [r7, #12]
 8002c0a:	43db      	mvns	r3, r3
 8002c0c:	1cb9      	adds	r1, r7, #2
 8002c0e:	8809      	ldrh	r1, [r1, #0]
 8002c10:	400b      	ands	r3, r1
 8002c12:	431a      	orrs	r2, r3
 8002c14:	687b      	ldr	r3, [r7, #4]
 8002c16:	619a      	str	r2, [r3, #24]
 8002c18:	46c0      	nop			; (mov r8, r8)
 8002c1a:	46bd      	mov	sp, r7
 8002c1c:	b004      	add	sp, #16
 8002c1e:	bd80      	pop	{r7, pc}

08002c20 <HAL_RCC_OscConfig>:
 8002c20:	b580      	push	{r7, lr}
 8002c22:	b088      	sub	sp, #32
 8002c24:	af00      	add	r7, sp, #0
 8002c26:	6078      	str	r0, [r7, #4]
 8002c28:	687b      	ldr	r3, [r7, #4]
 8002c2a:	2b00      	cmp	r3, #0
 8002c2c:	d101      	bne.n	8002c32 <HAL_RCC_OscConfig+0x12>
 8002c2e:	2301      	movs	r3, #1
 8002c30:	e301      	b.n	8003236 <HAL_RCC_OscConfig+0x616>
 8002c32:	687b      	ldr	r3, [r7, #4]
 8002c34:	681b      	ldr	r3, [r3, #0]
 8002c36:	2201      	movs	r2, #1
 8002c38:	4013      	ands	r3, r2
 8002c3a:	d100      	bne.n	8002c3e <HAL_RCC_OscConfig+0x1e>
 8002c3c:	e08d      	b.n	8002d5a <HAL_RCC_OscConfig+0x13a>
 8002c3e:	4bc3      	ldr	r3, [pc, #780]	; (8002f4c <HAL_RCC_OscConfig+0x32c>)
 8002c40:	685b      	ldr	r3, [r3, #4]
 8002c42:	220c      	movs	r2, #12
 8002c44:	4013      	ands	r3, r2
 8002c46:	2b04      	cmp	r3, #4
 8002c48:	d00e      	beq.n	8002c68 <HAL_RCC_OscConfig+0x48>
 8002c4a:	4bc0      	ldr	r3, [pc, #768]	; (8002f4c <HAL_RCC_OscConfig+0x32c>)
 8002c4c:	685b      	ldr	r3, [r3, #4]
 8002c4e:	220c      	movs	r2, #12
 8002c50:	4013      	ands	r3, r2
 8002c52:	2b08      	cmp	r3, #8
 8002c54:	d116      	bne.n	8002c84 <HAL_RCC_OscConfig+0x64>
 8002c56:	4bbd      	ldr	r3, [pc, #756]	; (8002f4c <HAL_RCC_OscConfig+0x32c>)
 8002c58:	685a      	ldr	r2, [r3, #4]
 8002c5a:	2380      	movs	r3, #128	; 0x80
 8002c5c:	025b      	lsls	r3, r3, #9
 8002c5e:	401a      	ands	r2, r3
 8002c60:	2380      	movs	r3, #128	; 0x80
 8002c62:	025b      	lsls	r3, r3, #9
 8002c64:	429a      	cmp	r2, r3
 8002c66:	d10d      	bne.n	8002c84 <HAL_RCC_OscConfig+0x64>
 8002c68:	4bb8      	ldr	r3, [pc, #736]	; (8002f4c <HAL_RCC_OscConfig+0x32c>)
 8002c6a:	681a      	ldr	r2, [r3, #0]
 8002c6c:	2380      	movs	r3, #128	; 0x80
 8002c6e:	029b      	lsls	r3, r3, #10
 8002c70:	4013      	ands	r3, r2
 8002c72:	d100      	bne.n	8002c76 <HAL_RCC_OscConfig+0x56>
 8002c74:	e070      	b.n	8002d58 <HAL_RCC_OscConfig+0x138>
 8002c76:	687b      	ldr	r3, [r7, #4]
 8002c78:	685b      	ldr	r3, [r3, #4]
 8002c7a:	2b00      	cmp	r3, #0
 8002c7c:	d000      	beq.n	8002c80 <HAL_RCC_OscConfig+0x60>
 8002c7e:	e06b      	b.n	8002d58 <HAL_RCC_OscConfig+0x138>
 8002c80:	2301      	movs	r3, #1
 8002c82:	e2d8      	b.n	8003236 <HAL_RCC_OscConfig+0x616>
 8002c84:	687b      	ldr	r3, [r7, #4]
 8002c86:	685b      	ldr	r3, [r3, #4]
 8002c88:	2b01      	cmp	r3, #1
 8002c8a:	d107      	bne.n	8002c9c <HAL_RCC_OscConfig+0x7c>
 8002c8c:	4baf      	ldr	r3, [pc, #700]	; (8002f4c <HAL_RCC_OscConfig+0x32c>)
 8002c8e:	681a      	ldr	r2, [r3, #0]
 8002c90:	4bae      	ldr	r3, [pc, #696]	; (8002f4c <HAL_RCC_OscConfig+0x32c>)
 8002c92:	2180      	movs	r1, #128	; 0x80
 8002c94:	0249      	lsls	r1, r1, #9
 8002c96:	430a      	orrs	r2, r1
 8002c98:	601a      	str	r2, [r3, #0]
 8002c9a:	e02f      	b.n	8002cfc <HAL_RCC_OscConfig+0xdc>
 8002c9c:	687b      	ldr	r3, [r7, #4]
 8002c9e:	685b      	ldr	r3, [r3, #4]
 8002ca0:	2b00      	cmp	r3, #0
 8002ca2:	d10c      	bne.n	8002cbe <HAL_RCC_OscConfig+0x9e>
 8002ca4:	4ba9      	ldr	r3, [pc, #676]	; (8002f4c <HAL_RCC_OscConfig+0x32c>)
 8002ca6:	681a      	ldr	r2, [r3, #0]
 8002ca8:	4ba8      	ldr	r3, [pc, #672]	; (8002f4c <HAL_RCC_OscConfig+0x32c>)
 8002caa:	49a9      	ldr	r1, [pc, #676]	; (8002f50 <HAL_RCC_OscConfig+0x330>)
 8002cac:	400a      	ands	r2, r1
 8002cae:	601a      	str	r2, [r3, #0]
 8002cb0:	4ba6      	ldr	r3, [pc, #664]	; (8002f4c <HAL_RCC_OscConfig+0x32c>)
 8002cb2:	681a      	ldr	r2, [r3, #0]
 8002cb4:	4ba5      	ldr	r3, [pc, #660]	; (8002f4c <HAL_RCC_OscConfig+0x32c>)
 8002cb6:	49a7      	ldr	r1, [pc, #668]	; (8002f54 <HAL_RCC_OscConfig+0x334>)
 8002cb8:	400a      	ands	r2, r1
 8002cba:	601a      	str	r2, [r3, #0]
 8002cbc:	e01e      	b.n	8002cfc <HAL_RCC_OscConfig+0xdc>
 8002cbe:	687b      	ldr	r3, [r7, #4]
 8002cc0:	685b      	ldr	r3, [r3, #4]
 8002cc2:	2b05      	cmp	r3, #5
 8002cc4:	d10e      	bne.n	8002ce4 <HAL_RCC_OscConfig+0xc4>
 8002cc6:	4ba1      	ldr	r3, [pc, #644]	; (8002f4c <HAL_RCC_OscConfig+0x32c>)
 8002cc8:	681a      	ldr	r2, [r3, #0]
 8002cca:	4ba0      	ldr	r3, [pc, #640]	; (8002f4c <HAL_RCC_OscConfig+0x32c>)
 8002ccc:	2180      	movs	r1, #128	; 0x80
 8002cce:	02c9      	lsls	r1, r1, #11
 8002cd0:	430a      	orrs	r2, r1
 8002cd2:	601a      	str	r2, [r3, #0]
 8002cd4:	4b9d      	ldr	r3, [pc, #628]	; (8002f4c <HAL_RCC_OscConfig+0x32c>)
 8002cd6:	681a      	ldr	r2, [r3, #0]
 8002cd8:	4b9c      	ldr	r3, [pc, #624]	; (8002f4c <HAL_RCC_OscConfig+0x32c>)
 8002cda:	2180      	movs	r1, #128	; 0x80
 8002cdc:	0249      	lsls	r1, r1, #9
 8002cde:	430a      	orrs	r2, r1
 8002ce0:	601a      	str	r2, [r3, #0]
 8002ce2:	e00b      	b.n	8002cfc <HAL_RCC_OscConfig+0xdc>
 8002ce4:	4b99      	ldr	r3, [pc, #612]	; (8002f4c <HAL_RCC_OscConfig+0x32c>)
 8002ce6:	681a      	ldr	r2, [r3, #0]
 8002ce8:	4b98      	ldr	r3, [pc, #608]	; (8002f4c <HAL_RCC_OscConfig+0x32c>)
 8002cea:	4999      	ldr	r1, [pc, #612]	; (8002f50 <HAL_RCC_OscConfig+0x330>)
 8002cec:	400a      	ands	r2, r1
 8002cee:	601a      	str	r2, [r3, #0]
 8002cf0:	4b96      	ldr	r3, [pc, #600]	; (8002f4c <HAL_RCC_OscConfig+0x32c>)
 8002cf2:	681a      	ldr	r2, [r3, #0]
 8002cf4:	4b95      	ldr	r3, [pc, #596]	; (8002f4c <HAL_RCC_OscConfig+0x32c>)
 8002cf6:	4997      	ldr	r1, [pc, #604]	; (8002f54 <HAL_RCC_OscConfig+0x334>)
 8002cf8:	400a      	ands	r2, r1
 8002cfa:	601a      	str	r2, [r3, #0]
 8002cfc:	687b      	ldr	r3, [r7, #4]
 8002cfe:	685b      	ldr	r3, [r3, #4]
 8002d00:	2b00      	cmp	r3, #0
 8002d02:	d014      	beq.n	8002d2e <HAL_RCC_OscConfig+0x10e>
 8002d04:	f7ff fb54 	bl	80023b0 <HAL_GetTick>
 8002d08:	0003      	movs	r3, r0
 8002d0a:	61bb      	str	r3, [r7, #24]
 8002d0c:	e008      	b.n	8002d20 <HAL_RCC_OscConfig+0x100>
 8002d0e:	f7ff fb4f 	bl	80023b0 <HAL_GetTick>
 8002d12:	0002      	movs	r2, r0
 8002d14:	69bb      	ldr	r3, [r7, #24]
 8002d16:	1ad3      	subs	r3, r2, r3
 8002d18:	2b64      	cmp	r3, #100	; 0x64
 8002d1a:	d901      	bls.n	8002d20 <HAL_RCC_OscConfig+0x100>
 8002d1c:	2303      	movs	r3, #3
 8002d1e:	e28a      	b.n	8003236 <HAL_RCC_OscConfig+0x616>
 8002d20:	4b8a      	ldr	r3, [pc, #552]	; (8002f4c <HAL_RCC_OscConfig+0x32c>)
 8002d22:	681a      	ldr	r2, [r3, #0]
 8002d24:	2380      	movs	r3, #128	; 0x80
 8002d26:	029b      	lsls	r3, r3, #10
 8002d28:	4013      	ands	r3, r2
 8002d2a:	d0f0      	beq.n	8002d0e <HAL_RCC_OscConfig+0xee>
 8002d2c:	e015      	b.n	8002d5a <HAL_RCC_OscConfig+0x13a>
 8002d2e:	f7ff fb3f 	bl	80023b0 <HAL_GetTick>
 8002d32:	0003      	movs	r3, r0
 8002d34:	61bb      	str	r3, [r7, #24]
 8002d36:	e008      	b.n	8002d4a <HAL_RCC_OscConfig+0x12a>
 8002d38:	f7ff fb3a 	bl	80023b0 <HAL_GetTick>
 8002d3c:	0002      	movs	r2, r0
 8002d3e:	69bb      	ldr	r3, [r7, #24]
 8002d40:	1ad3      	subs	r3, r2, r3
 8002d42:	2b64      	cmp	r3, #100	; 0x64
 8002d44:	d901      	bls.n	8002d4a <HAL_RCC_OscConfig+0x12a>
 8002d46:	2303      	movs	r3, #3
 8002d48:	e275      	b.n	8003236 <HAL_RCC_OscConfig+0x616>
 8002d4a:	4b80      	ldr	r3, [pc, #512]	; (8002f4c <HAL_RCC_OscConfig+0x32c>)
 8002d4c:	681a      	ldr	r2, [r3, #0]
 8002d4e:	2380      	movs	r3, #128	; 0x80
 8002d50:	029b      	lsls	r3, r3, #10
 8002d52:	4013      	ands	r3, r2
 8002d54:	d1f0      	bne.n	8002d38 <HAL_RCC_OscConfig+0x118>
 8002d56:	e000      	b.n	8002d5a <HAL_RCC_OscConfig+0x13a>
 8002d58:	46c0      	nop			; (mov r8, r8)
 8002d5a:	687b      	ldr	r3, [r7, #4]
 8002d5c:	681b      	ldr	r3, [r3, #0]
 8002d5e:	2202      	movs	r2, #2
 8002d60:	4013      	ands	r3, r2
 8002d62:	d100      	bne.n	8002d66 <HAL_RCC_OscConfig+0x146>
 8002d64:	e069      	b.n	8002e3a <HAL_RCC_OscConfig+0x21a>
 8002d66:	4b79      	ldr	r3, [pc, #484]	; (8002f4c <HAL_RCC_OscConfig+0x32c>)
 8002d68:	685b      	ldr	r3, [r3, #4]
 8002d6a:	220c      	movs	r2, #12
 8002d6c:	4013      	ands	r3, r2
 8002d6e:	d00b      	beq.n	8002d88 <HAL_RCC_OscConfig+0x168>
 8002d70:	4b76      	ldr	r3, [pc, #472]	; (8002f4c <HAL_RCC_OscConfig+0x32c>)
 8002d72:	685b      	ldr	r3, [r3, #4]
 8002d74:	220c      	movs	r2, #12
 8002d76:	4013      	ands	r3, r2
 8002d78:	2b08      	cmp	r3, #8
 8002d7a:	d11c      	bne.n	8002db6 <HAL_RCC_OscConfig+0x196>
 8002d7c:	4b73      	ldr	r3, [pc, #460]	; (8002f4c <HAL_RCC_OscConfig+0x32c>)
 8002d7e:	685a      	ldr	r2, [r3, #4]
 8002d80:	2380      	movs	r3, #128	; 0x80
 8002d82:	025b      	lsls	r3, r3, #9
 8002d84:	4013      	ands	r3, r2
 8002d86:	d116      	bne.n	8002db6 <HAL_RCC_OscConfig+0x196>
 8002d88:	4b70      	ldr	r3, [pc, #448]	; (8002f4c <HAL_RCC_OscConfig+0x32c>)
 8002d8a:	681b      	ldr	r3, [r3, #0]
 8002d8c:	2202      	movs	r2, #2
 8002d8e:	4013      	ands	r3, r2
 8002d90:	d005      	beq.n	8002d9e <HAL_RCC_OscConfig+0x17e>
 8002d92:	687b      	ldr	r3, [r7, #4]
 8002d94:	68db      	ldr	r3, [r3, #12]
 8002d96:	2b01      	cmp	r3, #1
 8002d98:	d001      	beq.n	8002d9e <HAL_RCC_OscConfig+0x17e>
 8002d9a:	2301      	movs	r3, #1
 8002d9c:	e24b      	b.n	8003236 <HAL_RCC_OscConfig+0x616>
 8002d9e:	4b6b      	ldr	r3, [pc, #428]	; (8002f4c <HAL_RCC_OscConfig+0x32c>)
 8002da0:	681b      	ldr	r3, [r3, #0]
 8002da2:	22f8      	movs	r2, #248	; 0xf8
 8002da4:	4393      	bics	r3, r2
 8002da6:	0019      	movs	r1, r3
 8002da8:	687b      	ldr	r3, [r7, #4]
 8002daa:	691b      	ldr	r3, [r3, #16]
 8002dac:	00da      	lsls	r2, r3, #3
 8002dae:	4b67      	ldr	r3, [pc, #412]	; (8002f4c <HAL_RCC_OscConfig+0x32c>)
 8002db0:	430a      	orrs	r2, r1
 8002db2:	601a      	str	r2, [r3, #0]
 8002db4:	e041      	b.n	8002e3a <HAL_RCC_OscConfig+0x21a>
 8002db6:	687b      	ldr	r3, [r7, #4]
 8002db8:	68db      	ldr	r3, [r3, #12]
 8002dba:	2b00      	cmp	r3, #0
 8002dbc:	d024      	beq.n	8002e08 <HAL_RCC_OscConfig+0x1e8>
 8002dbe:	4b63      	ldr	r3, [pc, #396]	; (8002f4c <HAL_RCC_OscConfig+0x32c>)
 8002dc0:	681a      	ldr	r2, [r3, #0]
 8002dc2:	4b62      	ldr	r3, [pc, #392]	; (8002f4c <HAL_RCC_OscConfig+0x32c>)
 8002dc4:	2101      	movs	r1, #1
 8002dc6:	430a      	orrs	r2, r1
 8002dc8:	601a      	str	r2, [r3, #0]
 8002dca:	f7ff faf1 	bl	80023b0 <HAL_GetTick>
 8002dce:	0003      	movs	r3, r0
 8002dd0:	61bb      	str	r3, [r7, #24]
 8002dd2:	e008      	b.n	8002de6 <HAL_RCC_OscConfig+0x1c6>
 8002dd4:	f7ff faec 	bl	80023b0 <HAL_GetTick>
 8002dd8:	0002      	movs	r2, r0
 8002dda:	69bb      	ldr	r3, [r7, #24]
 8002ddc:	1ad3      	subs	r3, r2, r3
 8002dde:	2b02      	cmp	r3, #2
 8002de0:	d901      	bls.n	8002de6 <HAL_RCC_OscConfig+0x1c6>
 8002de2:	2303      	movs	r3, #3
 8002de4:	e227      	b.n	8003236 <HAL_RCC_OscConfig+0x616>
 8002de6:	4b59      	ldr	r3, [pc, #356]	; (8002f4c <HAL_RCC_OscConfig+0x32c>)
 8002de8:	681b      	ldr	r3, [r3, #0]
 8002dea:	2202      	movs	r2, #2
 8002dec:	4013      	ands	r3, r2
 8002dee:	d0f1      	beq.n	8002dd4 <HAL_RCC_OscConfig+0x1b4>
 8002df0:	4b56      	ldr	r3, [pc, #344]	; (8002f4c <HAL_RCC_OscConfig+0x32c>)
 8002df2:	681b      	ldr	r3, [r3, #0]
 8002df4:	22f8      	movs	r2, #248	; 0xf8
 8002df6:	4393      	bics	r3, r2
 8002df8:	0019      	movs	r1, r3
 8002dfa:	687b      	ldr	r3, [r7, #4]
 8002dfc:	691b      	ldr	r3, [r3, #16]
 8002dfe:	00da      	lsls	r2, r3, #3
 8002e00:	4b52      	ldr	r3, [pc, #328]	; (8002f4c <HAL_RCC_OscConfig+0x32c>)
 8002e02:	430a      	orrs	r2, r1
 8002e04:	601a      	str	r2, [r3, #0]
 8002e06:	e018      	b.n	8002e3a <HAL_RCC_OscConfig+0x21a>
 8002e08:	4b50      	ldr	r3, [pc, #320]	; (8002f4c <HAL_RCC_OscConfig+0x32c>)
 8002e0a:	681a      	ldr	r2, [r3, #0]
 8002e0c:	4b4f      	ldr	r3, [pc, #316]	; (8002f4c <HAL_RCC_OscConfig+0x32c>)
 8002e0e:	2101      	movs	r1, #1
 8002e10:	438a      	bics	r2, r1
 8002e12:	601a      	str	r2, [r3, #0]
 8002e14:	f7ff facc 	bl	80023b0 <HAL_GetTick>
 8002e18:	0003      	movs	r3, r0
 8002e1a:	61bb      	str	r3, [r7, #24]
 8002e1c:	e008      	b.n	8002e30 <HAL_RCC_OscConfig+0x210>
 8002e1e:	f7ff fac7 	bl	80023b0 <HAL_GetTick>
 8002e22:	0002      	movs	r2, r0
 8002e24:	69bb      	ldr	r3, [r7, #24]
 8002e26:	1ad3      	subs	r3, r2, r3
 8002e28:	2b02      	cmp	r3, #2
 8002e2a:	d901      	bls.n	8002e30 <HAL_RCC_OscConfig+0x210>
 8002e2c:	2303      	movs	r3, #3
 8002e2e:	e202      	b.n	8003236 <HAL_RCC_OscConfig+0x616>
 8002e30:	4b46      	ldr	r3, [pc, #280]	; (8002f4c <HAL_RCC_OscConfig+0x32c>)
 8002e32:	681b      	ldr	r3, [r3, #0]
 8002e34:	2202      	movs	r2, #2
 8002e36:	4013      	ands	r3, r2
 8002e38:	d1f1      	bne.n	8002e1e <HAL_RCC_OscConfig+0x1fe>
 8002e3a:	687b      	ldr	r3, [r7, #4]
 8002e3c:	681b      	ldr	r3, [r3, #0]
 8002e3e:	2208      	movs	r2, #8
 8002e40:	4013      	ands	r3, r2
 8002e42:	d036      	beq.n	8002eb2 <HAL_RCC_OscConfig+0x292>
 8002e44:	687b      	ldr	r3, [r7, #4]
 8002e46:	69db      	ldr	r3, [r3, #28]
 8002e48:	2b00      	cmp	r3, #0
 8002e4a:	d019      	beq.n	8002e80 <HAL_RCC_OscConfig+0x260>
 8002e4c:	4b3f      	ldr	r3, [pc, #252]	; (8002f4c <HAL_RCC_OscConfig+0x32c>)
 8002e4e:	6a5a      	ldr	r2, [r3, #36]	; 0x24
 8002e50:	4b3e      	ldr	r3, [pc, #248]	; (8002f4c <HAL_RCC_OscConfig+0x32c>)
 8002e52:	2101      	movs	r1, #1
 8002e54:	430a      	orrs	r2, r1
 8002e56:	625a      	str	r2, [r3, #36]	; 0x24
 8002e58:	f7ff faaa 	bl	80023b0 <HAL_GetTick>
 8002e5c:	0003      	movs	r3, r0
 8002e5e:	61bb      	str	r3, [r7, #24]
 8002e60:	e008      	b.n	8002e74 <HAL_RCC_OscConfig+0x254>
 8002e62:	f7ff faa5 	bl	80023b0 <HAL_GetTick>
 8002e66:	0002      	movs	r2, r0
 8002e68:	69bb      	ldr	r3, [r7, #24]
 8002e6a:	1ad3      	subs	r3, r2, r3
 8002e6c:	2b02      	cmp	r3, #2
 8002e6e:	d901      	bls.n	8002e74 <HAL_RCC_OscConfig+0x254>
 8002e70:	2303      	movs	r3, #3
 8002e72:	e1e0      	b.n	8003236 <HAL_RCC_OscConfig+0x616>
 8002e74:	4b35      	ldr	r3, [pc, #212]	; (8002f4c <HAL_RCC_OscConfig+0x32c>)
 8002e76:	6a5b      	ldr	r3, [r3, #36]	; 0x24
 8002e78:	2202      	movs	r2, #2
 8002e7a:	4013      	ands	r3, r2
 8002e7c:	d0f1      	beq.n	8002e62 <HAL_RCC_OscConfig+0x242>
 8002e7e:	e018      	b.n	8002eb2 <HAL_RCC_OscConfig+0x292>
 8002e80:	4b32      	ldr	r3, [pc, #200]	; (8002f4c <HAL_RCC_OscConfig+0x32c>)
 8002e82:	6a5a      	ldr	r2, [r3, #36]	; 0x24
 8002e84:	4b31      	ldr	r3, [pc, #196]	; (8002f4c <HAL_RCC_OscConfig+0x32c>)
 8002e86:	2101      	movs	r1, #1
 8002e88:	438a      	bics	r2, r1
 8002e8a:	625a      	str	r2, [r3, #36]	; 0x24
 8002e8c:	f7ff fa90 	bl	80023b0 <HAL_GetTick>
 8002e90:	0003      	movs	r3, r0
 8002e92:	61bb      	str	r3, [r7, #24]
 8002e94:	e008      	b.n	8002ea8 <HAL_RCC_OscConfig+0x288>
 8002e96:	f7ff fa8b 	bl	80023b0 <HAL_GetTick>
 8002e9a:	0002      	movs	r2, r0
 8002e9c:	69bb      	ldr	r3, [r7, #24]
 8002e9e:	1ad3      	subs	r3, r2, r3
 8002ea0:	2b02      	cmp	r3, #2
 8002ea2:	d901      	bls.n	8002ea8 <HAL_RCC_OscConfig+0x288>
 8002ea4:	2303      	movs	r3, #3
 8002ea6:	e1c6      	b.n	8003236 <HAL_RCC_OscConfig+0x616>
 8002ea8:	4b28      	ldr	r3, [pc, #160]	; (8002f4c <HAL_RCC_OscConfig+0x32c>)
 8002eaa:	6a5b      	ldr	r3, [r3, #36]	; 0x24
 8002eac:	2202      	movs	r2, #2
 8002eae:	4013      	ands	r3, r2
 8002eb0:	d1f1      	bne.n	8002e96 <HAL_RCC_OscConfig+0x276>
 8002eb2:	687b      	ldr	r3, [r7, #4]
 8002eb4:	681b      	ldr	r3, [r3, #0]
 8002eb6:	2204      	movs	r2, #4
 8002eb8:	4013      	ands	r3, r2
 8002eba:	d100      	bne.n	8002ebe <HAL_RCC_OscConfig+0x29e>
 8002ebc:	e0b4      	b.n	8003028 <HAL_RCC_OscConfig+0x408>
 8002ebe:	201f      	movs	r0, #31
 8002ec0:	183b      	adds	r3, r7, r0
 8002ec2:	2200      	movs	r2, #0
 8002ec4:	701a      	strb	r2, [r3, #0]
 8002ec6:	4b21      	ldr	r3, [pc, #132]	; (8002f4c <HAL_RCC_OscConfig+0x32c>)
 8002ec8:	69da      	ldr	r2, [r3, #28]
 8002eca:	2380      	movs	r3, #128	; 0x80
 8002ecc:	055b      	lsls	r3, r3, #21
 8002ece:	4013      	ands	r3, r2
 8002ed0:	d110      	bne.n	8002ef4 <HAL_RCC_OscConfig+0x2d4>
 8002ed2:	4b1e      	ldr	r3, [pc, #120]	; (8002f4c <HAL_RCC_OscConfig+0x32c>)
 8002ed4:	69da      	ldr	r2, [r3, #28]
 8002ed6:	4b1d      	ldr	r3, [pc, #116]	; (8002f4c <HAL_RCC_OscConfig+0x32c>)
 8002ed8:	2180      	movs	r1, #128	; 0x80
 8002eda:	0549      	lsls	r1, r1, #21
 8002edc:	430a      	orrs	r2, r1
 8002ede:	61da      	str	r2, [r3, #28]
 8002ee0:	4b1a      	ldr	r3, [pc, #104]	; (8002f4c <HAL_RCC_OscConfig+0x32c>)
 8002ee2:	69da      	ldr	r2, [r3, #28]
 8002ee4:	2380      	movs	r3, #128	; 0x80
 8002ee6:	055b      	lsls	r3, r3, #21
 8002ee8:	4013      	ands	r3, r2
 8002eea:	60fb      	str	r3, [r7, #12]
 8002eec:	68fb      	ldr	r3, [r7, #12]
 8002eee:	183b      	adds	r3, r7, r0
 8002ef0:	2201      	movs	r2, #1
 8002ef2:	701a      	strb	r2, [r3, #0]
 8002ef4:	4b18      	ldr	r3, [pc, #96]	; (8002f58 <HAL_RCC_OscConfig+0x338>)
 8002ef6:	681a      	ldr	r2, [r3, #0]
 8002ef8:	2380      	movs	r3, #128	; 0x80
 8002efa:	005b      	lsls	r3, r3, #1
 8002efc:	4013      	ands	r3, r2
 8002efe:	d11a      	bne.n	8002f36 <HAL_RCC_OscConfig+0x316>
 8002f00:	4b15      	ldr	r3, [pc, #84]	; (8002f58 <HAL_RCC_OscConfig+0x338>)
 8002f02:	681a      	ldr	r2, [r3, #0]
 8002f04:	4b14      	ldr	r3, [pc, #80]	; (8002f58 <HAL_RCC_OscConfig+0x338>)
 8002f06:	2180      	movs	r1, #128	; 0x80
 8002f08:	0049      	lsls	r1, r1, #1
 8002f0a:	430a      	orrs	r2, r1
 8002f0c:	601a      	str	r2, [r3, #0]
 8002f0e:	f7ff fa4f 	bl	80023b0 <HAL_GetTick>
 8002f12:	0003      	movs	r3, r0
 8002f14:	61bb      	str	r3, [r7, #24]
 8002f16:	e008      	b.n	8002f2a <HAL_RCC_OscConfig+0x30a>
 8002f18:	f7ff fa4a 	bl	80023b0 <HAL_GetTick>
 8002f1c:	0002      	movs	r2, r0
 8002f1e:	69bb      	ldr	r3, [r7, #24]
 8002f20:	1ad3      	subs	r3, r2, r3
 8002f22:	2b64      	cmp	r3, #100	; 0x64
 8002f24:	d901      	bls.n	8002f2a <HAL_RCC_OscConfig+0x30a>
 8002f26:	2303      	movs	r3, #3
 8002f28:	e185      	b.n	8003236 <HAL_RCC_OscConfig+0x616>
 8002f2a:	4b0b      	ldr	r3, [pc, #44]	; (8002f58 <HAL_RCC_OscConfig+0x338>)
 8002f2c:	681a      	ldr	r2, [r3, #0]
 8002f2e:	2380      	movs	r3, #128	; 0x80
 8002f30:	005b      	lsls	r3, r3, #1
 8002f32:	4013      	ands	r3, r2
 8002f34:	d0f0      	beq.n	8002f18 <HAL_RCC_OscConfig+0x2f8>
 8002f36:	687b      	ldr	r3, [r7, #4]
 8002f38:	689b      	ldr	r3, [r3, #8]
 8002f3a:	2b01      	cmp	r3, #1
 8002f3c:	d10e      	bne.n	8002f5c <HAL_RCC_OscConfig+0x33c>
 8002f3e:	4b03      	ldr	r3, [pc, #12]	; (8002f4c <HAL_RCC_OscConfig+0x32c>)
 8002f40:	6a1a      	ldr	r2, [r3, #32]
 8002f42:	4b02      	ldr	r3, [pc, #8]	; (8002f4c <HAL_RCC_OscConfig+0x32c>)
 8002f44:	2101      	movs	r1, #1
 8002f46:	430a      	orrs	r2, r1
 8002f48:	621a      	str	r2, [r3, #32]
 8002f4a:	e035      	b.n	8002fb8 <HAL_RCC_OscConfig+0x398>
 8002f4c:	40021000 	.word	0x40021000
 8002f50:	fffeffff 	.word	0xfffeffff
 8002f54:	fffbffff 	.word	0xfffbffff
 8002f58:	40007000 	.word	0x40007000
 8002f5c:	687b      	ldr	r3, [r7, #4]
 8002f5e:	689b      	ldr	r3, [r3, #8]
 8002f60:	2b00      	cmp	r3, #0
 8002f62:	d10c      	bne.n	8002f7e <HAL_RCC_OscConfig+0x35e>
 8002f64:	4bb6      	ldr	r3, [pc, #728]	; (8003240 <HAL_RCC_OscConfig+0x620>)
 8002f66:	6a1a      	ldr	r2, [r3, #32]
 8002f68:	4bb5      	ldr	r3, [pc, #724]	; (8003240 <HAL_RCC_OscConfig+0x620>)
 8002f6a:	2101      	movs	r1, #1
 8002f6c:	438a      	bics	r2, r1
 8002f6e:	621a      	str	r2, [r3, #32]
 8002f70:	4bb3      	ldr	r3, [pc, #716]	; (8003240 <HAL_RCC_OscConfig+0x620>)
 8002f72:	6a1a      	ldr	r2, [r3, #32]
 8002f74:	4bb2      	ldr	r3, [pc, #712]	; (8003240 <HAL_RCC_OscConfig+0x620>)
 8002f76:	2104      	movs	r1, #4
 8002f78:	438a      	bics	r2, r1
 8002f7a:	621a      	str	r2, [r3, #32]
 8002f7c:	e01c      	b.n	8002fb8 <HAL_RCC_OscConfig+0x398>
 8002f7e:	687b      	ldr	r3, [r7, #4]
 8002f80:	689b      	ldr	r3, [r3, #8]
 8002f82:	2b05      	cmp	r3, #5
 8002f84:	d10c      	bne.n	8002fa0 <HAL_RCC_OscConfig+0x380>
 8002f86:	4bae      	ldr	r3, [pc, #696]	; (8003240 <HAL_RCC_OscConfig+0x620>)
 8002f88:	6a1a      	ldr	r2, [r3, #32]
 8002f8a:	4bad      	ldr	r3, [pc, #692]	; (8003240 <HAL_RCC_OscConfig+0x620>)
 8002f8c:	2104      	movs	r1, #4
 8002f8e:	430a      	orrs	r2, r1
 8002f90:	621a      	str	r2, [r3, #32]
 8002f92:	4bab      	ldr	r3, [pc, #684]	; (8003240 <HAL_RCC_OscConfig+0x620>)
 8002f94:	6a1a      	ldr	r2, [r3, #32]
 8002f96:	4baa      	ldr	r3, [pc, #680]	; (8003240 <HAL_RCC_OscConfig+0x620>)
 8002f98:	2101      	movs	r1, #1
 8002f9a:	430a      	orrs	r2, r1
 8002f9c:	621a      	str	r2, [r3, #32]
 8002f9e:	e00b      	b.n	8002fb8 <HAL_RCC_OscConfig+0x398>
 8002fa0:	4ba7      	ldr	r3, [pc, #668]	; (8003240 <HAL_RCC_OscConfig+0x620>)
 8002fa2:	6a1a      	ldr	r2, [r3, #32]
 8002fa4:	4ba6      	ldr	r3, [pc, #664]	; (8003240 <HAL_RCC_OscConfig+0x620>)
 8002fa6:	2101      	movs	r1, #1
 8002fa8:	438a      	bics	r2, r1
 8002faa:	621a      	str	r2, [r3, #32]
 8002fac:	4ba4      	ldr	r3, [pc, #656]	; (8003240 <HAL_RCC_OscConfig+0x620>)
 8002fae:	6a1a      	ldr	r2, [r3, #32]
 8002fb0:	4ba3      	ldr	r3, [pc, #652]	; (8003240 <HAL_RCC_OscConfig+0x620>)
 8002fb2:	2104      	movs	r1, #4
 8002fb4:	438a      	bics	r2, r1
 8002fb6:	621a      	str	r2, [r3, #32]
 8002fb8:	687b      	ldr	r3, [r7, #4]
 8002fba:	689b      	ldr	r3, [r3, #8]
 8002fbc:	2b00      	cmp	r3, #0
 8002fbe:	d014      	beq.n	8002fea <HAL_RCC_OscConfig+0x3ca>
 8002fc0:	f7ff f9f6 	bl	80023b0 <HAL_GetTick>
 8002fc4:	0003      	movs	r3, r0
 8002fc6:	61bb      	str	r3, [r7, #24]
 8002fc8:	e009      	b.n	8002fde <HAL_RCC_OscConfig+0x3be>
 8002fca:	f7ff f9f1 	bl	80023b0 <HAL_GetTick>
 8002fce:	0002      	movs	r2, r0
 8002fd0:	69bb      	ldr	r3, [r7, #24]
 8002fd2:	1ad3      	subs	r3, r2, r3
 8002fd4:	4a9b      	ldr	r2, [pc, #620]	; (8003244 <HAL_RCC_OscConfig+0x624>)
 8002fd6:	4293      	cmp	r3, r2
 8002fd8:	d901      	bls.n	8002fde <HAL_RCC_OscConfig+0x3be>
 8002fda:	2303      	movs	r3, #3
 8002fdc:	e12b      	b.n	8003236 <HAL_RCC_OscConfig+0x616>
 8002fde:	4b98      	ldr	r3, [pc, #608]	; (8003240 <HAL_RCC_OscConfig+0x620>)
 8002fe0:	6a1b      	ldr	r3, [r3, #32]
 8002fe2:	2202      	movs	r2, #2
 8002fe4:	4013      	ands	r3, r2
 8002fe6:	d0f0      	beq.n	8002fca <HAL_RCC_OscConfig+0x3aa>
 8002fe8:	e013      	b.n	8003012 <HAL_RCC_OscConfig+0x3f2>
 8002fea:	f7ff f9e1 	bl	80023b0 <HAL_GetTick>
 8002fee:	0003      	movs	r3, r0
 8002ff0:	61bb      	str	r3, [r7, #24]
 8002ff2:	e009      	b.n	8003008 <HAL_RCC_OscConfig+0x3e8>
 8002ff4:	f7ff f9dc 	bl	80023b0 <HAL_GetTick>
 8002ff8:	0002      	movs	r2, r0
 8002ffa:	69bb      	ldr	r3, [r7, #24]
 8002ffc:	1ad3      	subs	r3, r2, r3
 8002ffe:	4a91      	ldr	r2, [pc, #580]	; (8003244 <HAL_RCC_OscConfig+0x624>)
 8003000:	4293      	cmp	r3, r2
 8003002:	d901      	bls.n	8003008 <HAL_RCC_OscConfig+0x3e8>
 8003004:	2303      	movs	r3, #3
 8003006:	e116      	b.n	8003236 <HAL_RCC_OscConfig+0x616>
 8003008:	4b8d      	ldr	r3, [pc, #564]	; (8003240 <HAL_RCC_OscConfig+0x620>)
 800300a:	6a1b      	ldr	r3, [r3, #32]
 800300c:	2202      	movs	r2, #2
 800300e:	4013      	ands	r3, r2
 8003010:	d1f0      	bne.n	8002ff4 <HAL_RCC_OscConfig+0x3d4>
 8003012:	231f      	movs	r3, #31
 8003014:	18fb      	adds	r3, r7, r3
 8003016:	781b      	ldrb	r3, [r3, #0]
 8003018:	2b01      	cmp	r3, #1
 800301a:	d105      	bne.n	8003028 <HAL_RCC_OscConfig+0x408>
 800301c:	4b88      	ldr	r3, [pc, #544]	; (8003240 <HAL_RCC_OscConfig+0x620>)
 800301e:	69da      	ldr	r2, [r3, #28]
 8003020:	4b87      	ldr	r3, [pc, #540]	; (8003240 <HAL_RCC_OscConfig+0x620>)
 8003022:	4989      	ldr	r1, [pc, #548]	; (8003248 <HAL_RCC_OscConfig+0x628>)
 8003024:	400a      	ands	r2, r1
 8003026:	61da      	str	r2, [r3, #28]
 8003028:	687b      	ldr	r3, [r7, #4]
 800302a:	681b      	ldr	r3, [r3, #0]
 800302c:	2210      	movs	r2, #16
 800302e:	4013      	ands	r3, r2
 8003030:	d063      	beq.n	80030fa <HAL_RCC_OscConfig+0x4da>
 8003032:	687b      	ldr	r3, [r7, #4]
 8003034:	695b      	ldr	r3, [r3, #20]
 8003036:	2b01      	cmp	r3, #1
 8003038:	d12a      	bne.n	8003090 <HAL_RCC_OscConfig+0x470>
 800303a:	4b81      	ldr	r3, [pc, #516]	; (8003240 <HAL_RCC_OscConfig+0x620>)
 800303c:	6b5a      	ldr	r2, [r3, #52]	; 0x34
 800303e:	4b80      	ldr	r3, [pc, #512]	; (8003240 <HAL_RCC_OscConfig+0x620>)
 8003040:	2104      	movs	r1, #4
 8003042:	430a      	orrs	r2, r1
 8003044:	635a      	str	r2, [r3, #52]	; 0x34
 8003046:	4b7e      	ldr	r3, [pc, #504]	; (8003240 <HAL_RCC_OscConfig+0x620>)
 8003048:	6b5a      	ldr	r2, [r3, #52]	; 0x34
 800304a:	4b7d      	ldr	r3, [pc, #500]	; (8003240 <HAL_RCC_OscConfig+0x620>)
 800304c:	2101      	movs	r1, #1
 800304e:	430a      	orrs	r2, r1
 8003050:	635a      	str	r2, [r3, #52]	; 0x34
 8003052:	f7ff f9ad 	bl	80023b0 <HAL_GetTick>
 8003056:	0003      	movs	r3, r0
 8003058:	61bb      	str	r3, [r7, #24]
 800305a:	e008      	b.n	800306e <HAL_RCC_OscConfig+0x44e>
 800305c:	f7ff f9a8 	bl	80023b0 <HAL_GetTick>
 8003060:	0002      	movs	r2, r0
 8003062:	69bb      	ldr	r3, [r7, #24]
 8003064:	1ad3      	subs	r3, r2, r3
 8003066:	2b02      	cmp	r3, #2
 8003068:	d901      	bls.n	800306e <HAL_RCC_OscConfig+0x44e>
 800306a:	2303      	movs	r3, #3
 800306c:	e0e3      	b.n	8003236 <HAL_RCC_OscConfig+0x616>
 800306e:	4b74      	ldr	r3, [pc, #464]	; (8003240 <HAL_RCC_OscConfig+0x620>)
 8003070:	6b5b      	ldr	r3, [r3, #52]	; 0x34
 8003072:	2202      	movs	r2, #2
 8003074:	4013      	ands	r3, r2
 8003076:	d0f1      	beq.n	800305c <HAL_RCC_OscConfig+0x43c>
 8003078:	4b71      	ldr	r3, [pc, #452]	; (8003240 <HAL_RCC_OscConfig+0x620>)
 800307a:	6b5b      	ldr	r3, [r3, #52]	; 0x34
 800307c:	22f8      	movs	r2, #248	; 0xf8
 800307e:	4393      	bics	r3, r2
 8003080:	0019      	movs	r1, r3
 8003082:	687b      	ldr	r3, [r7, #4]
 8003084:	699b      	ldr	r3, [r3, #24]
 8003086:	00da      	lsls	r2, r3, #3
 8003088:	4b6d      	ldr	r3, [pc, #436]	; (8003240 <HAL_RCC_OscConfig+0x620>)
 800308a:	430a      	orrs	r2, r1
 800308c:	635a      	str	r2, [r3, #52]	; 0x34
 800308e:	e034      	b.n	80030fa <HAL_RCC_OscConfig+0x4da>
 8003090:	687b      	ldr	r3, [r7, #4]
 8003092:	695b      	ldr	r3, [r3, #20]
 8003094:	3305      	adds	r3, #5
 8003096:	d111      	bne.n	80030bc <HAL_RCC_OscConfig+0x49c>
 8003098:	4b69      	ldr	r3, [pc, #420]	; (8003240 <HAL_RCC_OscConfig+0x620>)
 800309a:	6b5a      	ldr	r2, [r3, #52]	; 0x34
 800309c:	4b68      	ldr	r3, [pc, #416]	; (8003240 <HAL_RCC_OscConfig+0x620>)
 800309e:	2104      	movs	r1, #4
 80030a0:	438a      	bics	r2, r1
 80030a2:	635a      	str	r2, [r3, #52]	; 0x34
 80030a4:	4b66      	ldr	r3, [pc, #408]	; (8003240 <HAL_RCC_OscConfig+0x620>)
 80030a6:	6b5b      	ldr	r3, [r3, #52]	; 0x34
 80030a8:	22f8      	movs	r2, #248	; 0xf8
 80030aa:	4393      	bics	r3, r2
 80030ac:	0019      	movs	r1, r3
 80030ae:	687b      	ldr	r3, [r7, #4]
 80030b0:	699b      	ldr	r3, [r3, #24]
 80030b2:	00da      	lsls	r2, r3, #3
 80030b4:	4b62      	ldr	r3, [pc, #392]	; (8003240 <HAL_RCC_OscConfig+0x620>)
 80030b6:	430a      	orrs	r2, r1
 80030b8:	635a      	str	r2, [r3, #52]	; 0x34
 80030ba:	e01e      	b.n	80030fa <HAL_RCC_OscConfig+0x4da>
 80030bc:	4b60      	ldr	r3, [pc, #384]	; (8003240 <HAL_RCC_OscConfig+0x620>)
 80030be:	6b5a      	ldr	r2, [r3, #52]	; 0x34
 80030c0:	4b5f      	ldr	r3, [pc, #380]	; (8003240 <HAL_RCC_OscConfig+0x620>)
 80030c2:	2104      	movs	r1, #4
 80030c4:	430a      	orrs	r2, r1
 80030c6:	635a      	str	r2, [r3, #52]	; 0x34
 80030c8:	4b5d      	ldr	r3, [pc, #372]	; (8003240 <HAL_RCC_OscConfig+0x620>)
 80030ca:	6b5a      	ldr	r2, [r3, #52]	; 0x34
 80030cc:	4b5c      	ldr	r3, [pc, #368]	; (8003240 <HAL_RCC_OscConfig+0x620>)
 80030ce:	2101      	movs	r1, #1
 80030d0:	438a      	bics	r2, r1
 80030d2:	635a      	str	r2, [r3, #52]	; 0x34
 80030d4:	f7ff f96c 	bl	80023b0 <HAL_GetTick>
 80030d8:	0003      	movs	r3, r0
 80030da:	61bb      	str	r3, [r7, #24]
 80030dc:	e008      	b.n	80030f0 <HAL_RCC_OscConfig+0x4d0>
 80030de:	f7ff f967 	bl	80023b0 <HAL_GetTick>
 80030e2:	0002      	movs	r2, r0
 80030e4:	69bb      	ldr	r3, [r7, #24]
 80030e6:	1ad3      	subs	r3, r2, r3
 80030e8:	2b02      	cmp	r3, #2
 80030ea:	d901      	bls.n	80030f0 <HAL_RCC_OscConfig+0x4d0>
 80030ec:	2303      	movs	r3, #3
 80030ee:	e0a2      	b.n	8003236 <HAL_RCC_OscConfig+0x616>
 80030f0:	4b53      	ldr	r3, [pc, #332]	; (8003240 <HAL_RCC_OscConfig+0x620>)
 80030f2:	6b5b      	ldr	r3, [r3, #52]	; 0x34
 80030f4:	2202      	movs	r2, #2
 80030f6:	4013      	ands	r3, r2
 80030f8:	d1f1      	bne.n	80030de <HAL_RCC_OscConfig+0x4be>
 80030fa:	687b      	ldr	r3, [r7, #4]
 80030fc:	6a1b      	ldr	r3, [r3, #32]
 80030fe:	2b00      	cmp	r3, #0
 8003100:	d100      	bne.n	8003104 <HAL_RCC_OscConfig+0x4e4>
 8003102:	e097      	b.n	8003234 <HAL_RCC_OscConfig+0x614>
 8003104:	4b4e      	ldr	r3, [pc, #312]	; (8003240 <HAL_RCC_OscConfig+0x620>)
 8003106:	685b      	ldr	r3, [r3, #4]
 8003108:	220c      	movs	r2, #12
 800310a:	4013      	ands	r3, r2
 800310c:	2b08      	cmp	r3, #8
 800310e:	d100      	bne.n	8003112 <HAL_RCC_OscConfig+0x4f2>
 8003110:	e06b      	b.n	80031ea <HAL_RCC_OscConfig+0x5ca>
 8003112:	687b      	ldr	r3, [r7, #4]
 8003114:	6a1b      	ldr	r3, [r3, #32]
 8003116:	2b02      	cmp	r3, #2
 8003118:	d14c      	bne.n	80031b4 <HAL_RCC_OscConfig+0x594>
 800311a:	4b49      	ldr	r3, [pc, #292]	; (8003240 <HAL_RCC_OscConfig+0x620>)
 800311c:	681a      	ldr	r2, [r3, #0]
 800311e:	4b48      	ldr	r3, [pc, #288]	; (8003240 <HAL_RCC_OscConfig+0x620>)
 8003120:	494a      	ldr	r1, [pc, #296]	; (800324c <HAL_RCC_OscConfig+0x62c>)
 8003122:	400a      	ands	r2, r1
 8003124:	601a      	str	r2, [r3, #0]
 8003126:	f7ff f943 	bl	80023b0 <HAL_GetTick>
 800312a:	0003      	movs	r3, r0
 800312c:	61bb      	str	r3, [r7, #24]
 800312e:	e008      	b.n	8003142 <HAL_RCC_OscConfig+0x522>
 8003130:	f7ff f93e 	bl	80023b0 <HAL_GetTick>
 8003134:	0002      	movs	r2, r0
 8003136:	69bb      	ldr	r3, [r7, #24]
 8003138:	1ad3      	subs	r3, r2, r3
 800313a:	2b02      	cmp	r3, #2
 800313c:	d901      	bls.n	8003142 <HAL_RCC_OscConfig+0x522>
 800313e:	2303      	movs	r3, #3
 8003140:	e079      	b.n	8003236 <HAL_RCC_OscConfig+0x616>
 8003142:	4b3f      	ldr	r3, [pc, #252]	; (8003240 <HAL_RCC_OscConfig+0x620>)
 8003144:	681a      	ldr	r2, [r3, #0]
 8003146:	2380      	movs	r3, #128	; 0x80
 8003148:	049b      	lsls	r3, r3, #18
 800314a:	4013      	ands	r3, r2
 800314c:	d1f0      	bne.n	8003130 <HAL_RCC_OscConfig+0x510>
 800314e:	4b3c      	ldr	r3, [pc, #240]	; (8003240 <HAL_RCC_OscConfig+0x620>)
 8003150:	6adb      	ldr	r3, [r3, #44]	; 0x2c
 8003152:	220f      	movs	r2, #15
 8003154:	4393      	bics	r3, r2
 8003156:	0019      	movs	r1, r3
 8003158:	687b      	ldr	r3, [r7, #4]
 800315a:	6ada      	ldr	r2, [r3, #44]	; 0x2c
 800315c:	4b38      	ldr	r3, [pc, #224]	; (8003240 <HAL_RCC_OscConfig+0x620>)
 800315e:	430a      	orrs	r2, r1
 8003160:	62da      	str	r2, [r3, #44]	; 0x2c
 8003162:	4b37      	ldr	r3, [pc, #220]	; (8003240 <HAL_RCC_OscConfig+0x620>)
 8003164:	685b      	ldr	r3, [r3, #4]
 8003166:	4a3a      	ldr	r2, [pc, #232]	; (8003250 <HAL_RCC_OscConfig+0x630>)
 8003168:	4013      	ands	r3, r2
 800316a:	0019      	movs	r1, r3
 800316c:	687b      	ldr	r3, [r7, #4]
 800316e:	6a9a      	ldr	r2, [r3, #40]	; 0x28
 8003170:	687b      	ldr	r3, [r7, #4]
 8003172:	6a5b      	ldr	r3, [r3, #36]	; 0x24
 8003174:	431a      	orrs	r2, r3
 8003176:	4b32      	ldr	r3, [pc, #200]	; (8003240 <HAL_RCC_OscConfig+0x620>)
 8003178:	430a      	orrs	r2, r1
 800317a:	605a      	str	r2, [r3, #4]
 800317c:	4b30      	ldr	r3, [pc, #192]	; (8003240 <HAL_RCC_OscConfig+0x620>)
 800317e:	681a      	ldr	r2, [r3, #0]
 8003180:	4b2f      	ldr	r3, [pc, #188]	; (8003240 <HAL_RCC_OscConfig+0x620>)
 8003182:	2180      	movs	r1, #128	; 0x80
 8003184:	0449      	lsls	r1, r1, #17
 8003186:	430a      	orrs	r2, r1
 8003188:	601a      	str	r2, [r3, #0]
 800318a:	f7ff f911 	bl	80023b0 <HAL_GetTick>
 800318e:	0003      	movs	r3, r0
 8003190:	61bb      	str	r3, [r7, #24]
 8003192:	e008      	b.n	80031a6 <HAL_RCC_OscConfig+0x586>
 8003194:	f7ff f90c 	bl	80023b0 <HAL_GetTick>
 8003198:	0002      	movs	r2, r0
 800319a:	69bb      	ldr	r3, [r7, #24]
 800319c:	1ad3      	subs	r3, r2, r3
 800319e:	2b02      	cmp	r3, #2
 80031a0:	d901      	bls.n	80031a6 <HAL_RCC_OscConfig+0x586>
 80031a2:	2303      	movs	r3, #3
 80031a4:	e047      	b.n	8003236 <HAL_RCC_OscConfig+0x616>
 80031a6:	4b26      	ldr	r3, [pc, #152]	; (8003240 <HAL_RCC_OscConfig+0x620>)
 80031a8:	681a      	ldr	r2, [r3, #0]
 80031aa:	2380      	movs	r3, #128	; 0x80
 80031ac:	049b      	lsls	r3, r3, #18
 80031ae:	4013      	ands	r3, r2
 80031b0:	d0f0      	beq.n	8003194 <HAL_RCC_OscConfig+0x574>
 80031b2:	e03f      	b.n	8003234 <HAL_RCC_OscConfig+0x614>
 80031b4:	4b22      	ldr	r3, [pc, #136]	; (8003240 <HAL_RCC_OscConfig+0x620>)
 80031b6:	681a      	ldr	r2, [r3, #0]
 80031b8:	4b21      	ldr	r3, [pc, #132]	; (8003240 <HAL_RCC_OscConfig+0x620>)
 80031ba:	4924      	ldr	r1, [pc, #144]	; (800324c <HAL_RCC_OscConfig+0x62c>)
 80031bc:	400a      	ands	r2, r1
 80031be:	601a      	str	r2, [r3, #0]
 80031c0:	f7ff f8f6 	bl	80023b0 <HAL_GetTick>
 80031c4:	0003      	movs	r3, r0
 80031c6:	61bb      	str	r3, [r7, #24]
 80031c8:	e008      	b.n	80031dc <HAL_RCC_OscConfig+0x5bc>
 80031ca:	f7ff f8f1 	bl	80023b0 <HAL_GetTick>
 80031ce:	0002      	movs	r2, r0
 80031d0:	69bb      	ldr	r3, [r7, #24]
 80031d2:	1ad3      	subs	r3, r2, r3
 80031d4:	2b02      	cmp	r3, #2
 80031d6:	d901      	bls.n	80031dc <HAL_RCC_OscConfig+0x5bc>
 80031d8:	2303      	movs	r3, #3
 80031da:	e02c      	b.n	8003236 <HAL_RCC_OscConfig+0x616>
 80031dc:	4b18      	ldr	r3, [pc, #96]	; (8003240 <HAL_RCC_OscConfig+0x620>)
 80031de:	681a      	ldr	r2, [r3, #0]
 80031e0:	2380      	movs	r3, #128	; 0x80
 80031e2:	049b      	lsls	r3, r3, #18
 80031e4:	4013      	ands	r3, r2
 80031e6:	d1f0      	bne.n	80031ca <HAL_RCC_OscConfig+0x5aa>
 80031e8:	e024      	b.n	8003234 <HAL_RCC_OscConfig+0x614>
 80031ea:	687b      	ldr	r3, [r7, #4]
 80031ec:	6a1b      	ldr	r3, [r3, #32]
 80031ee:	2b01      	cmp	r3, #1
 80031f0:	d101      	bne.n	80031f6 <HAL_RCC_OscConfig+0x5d6>
 80031f2:	2301      	movs	r3, #1
 80031f4:	e01f      	b.n	8003236 <HAL_RCC_OscConfig+0x616>
 80031f6:	4b12      	ldr	r3, [pc, #72]	; (8003240 <HAL_RCC_OscConfig+0x620>)
 80031f8:	685b      	ldr	r3, [r3, #4]
 80031fa:	617b      	str	r3, [r7, #20]
 80031fc:	4b10      	ldr	r3, [pc, #64]	; (8003240 <HAL_RCC_OscConfig+0x620>)
 80031fe:	6adb      	ldr	r3, [r3, #44]	; 0x2c
 8003200:	613b      	str	r3, [r7, #16]
 8003202:	697a      	ldr	r2, [r7, #20]
 8003204:	2380      	movs	r3, #128	; 0x80
 8003206:	025b      	lsls	r3, r3, #9
 8003208:	401a      	ands	r2, r3
 800320a:	687b      	ldr	r3, [r7, #4]
 800320c:	6a5b      	ldr	r3, [r3, #36]	; 0x24
 800320e:	429a      	cmp	r2, r3
 8003210:	d10e      	bne.n	8003230 <HAL_RCC_OscConfig+0x610>
 8003212:	693b      	ldr	r3, [r7, #16]
 8003214:	220f      	movs	r2, #15
 8003216:	401a      	ands	r2, r3
 8003218:	687b      	ldr	r3, [r7, #4]
 800321a:	6adb      	ldr	r3, [r3, #44]	; 0x2c
 800321c:	429a      	cmp	r2, r3
 800321e:	d107      	bne.n	8003230 <HAL_RCC_OscConfig+0x610>
 8003220:	697a      	ldr	r2, [r7, #20]
 8003222:	23f0      	movs	r3, #240	; 0xf0
 8003224:	039b      	lsls	r3, r3, #14
 8003226:	401a      	ands	r2, r3
 8003228:	687b      	ldr	r3, [r7, #4]
 800322a:	6a9b      	ldr	r3, [r3, #40]	; 0x28
 800322c:	429a      	cmp	r2, r3
 800322e:	d001      	beq.n	8003234 <HAL_RCC_OscConfig+0x614>
 8003230:	2301      	movs	r3, #1
 8003232:	e000      	b.n	8003236 <HAL_RCC_OscConfig+0x616>
 8003234:	2300      	movs	r3, #0
 8003236:	0018      	movs	r0, r3
 8003238:	46bd      	mov	sp, r7
 800323a:	b008      	add	sp, #32
 800323c:	bd80      	pop	{r7, pc}
 800323e:	46c0      	nop			; (mov r8, r8)
 8003240:	40021000 	.word	0x40021000
 8003244:	00001388 	.word	0x00001388
 8003248:	efffffff 	.word	0xefffffff
 800324c:	feffffff 	.word	0xfeffffff
 8003250:	ffc2ffff 	.word	0xffc2ffff

08003254 <HAL_RCC_ClockConfig>:
 8003254:	b580      	push	{r7, lr}
 8003256:	b084      	sub	sp, #16
 8003258:	af00      	add	r7, sp, #0
 800325a:	6078      	str	r0, [r7, #4]
 800325c:	6039      	str	r1, [r7, #0]
 800325e:	687b      	ldr	r3, [r7, #4]
 8003260:	2b00      	cmp	r3, #0
 8003262:	d101      	bne.n	8003268 <HAL_RCC_ClockConfig+0x14>
 8003264:	2301      	movs	r3, #1
 8003266:	e0b3      	b.n	80033d0 <HAL_RCC_ClockConfig+0x17c>
 8003268:	4b5b      	ldr	r3, [pc, #364]	; (80033d8 <HAL_RCC_ClockConfig+0x184>)
 800326a:	681b      	ldr	r3, [r3, #0]
 800326c:	2201      	movs	r2, #1
 800326e:	4013      	ands	r3, r2
 8003270:	683a      	ldr	r2, [r7, #0]
 8003272:	429a      	cmp	r2, r3
 8003274:	d911      	bls.n	800329a <HAL_RCC_ClockConfig+0x46>
 8003276:	4b58      	ldr	r3, [pc, #352]	; (80033d8 <HAL_RCC_ClockConfig+0x184>)
 8003278:	681b      	ldr	r3, [r3, #0]
 800327a:	2201      	movs	r2, #1
 800327c:	4393      	bics	r3, r2
 800327e:	0019      	movs	r1, r3
 8003280:	4b55      	ldr	r3, [pc, #340]	; (80033d8 <HAL_RCC_ClockConfig+0x184>)
 8003282:	683a      	ldr	r2, [r7, #0]
 8003284:	430a      	orrs	r2, r1
 8003286:	601a      	str	r2, [r3, #0]
 8003288:	4b53      	ldr	r3, [pc, #332]	; (80033d8 <HAL_RCC_ClockConfig+0x184>)
 800328a:	681b      	ldr	r3, [r3, #0]
 800328c:	2201      	movs	r2, #1
 800328e:	4013      	ands	r3, r2
 8003290:	683a      	ldr	r2, [r7, #0]
 8003292:	429a      	cmp	r2, r3
 8003294:	d001      	beq.n	800329a <HAL_RCC_ClockConfig+0x46>
 8003296:	2301      	movs	r3, #1
 8003298:	e09a      	b.n	80033d0 <HAL_RCC_ClockConfig+0x17c>
 800329a:	687b      	ldr	r3, [r7, #4]
 800329c:	681b      	ldr	r3, [r3, #0]
 800329e:	2202      	movs	r2, #2
 80032a0:	4013      	ands	r3, r2
 80032a2:	d015      	beq.n	80032d0 <HAL_RCC_ClockConfig+0x7c>
 80032a4:	687b      	ldr	r3, [r7, #4]
 80032a6:	681b      	ldr	r3, [r3, #0]
 80032a8:	2204      	movs	r2, #4
 80032aa:	4013      	ands	r3, r2
 80032ac:	d006      	beq.n	80032bc <HAL_RCC_ClockConfig+0x68>
 80032ae:	4b4b      	ldr	r3, [pc, #300]	; (80033dc <HAL_RCC_ClockConfig+0x188>)
 80032b0:	685a      	ldr	r2, [r3, #4]
 80032b2:	4b4a      	ldr	r3, [pc, #296]	; (80033dc <HAL_RCC_ClockConfig+0x188>)
 80032b4:	21e0      	movs	r1, #224	; 0xe0
 80032b6:	00c9      	lsls	r1, r1, #3
 80032b8:	430a      	orrs	r2, r1
 80032ba:	605a      	str	r2, [r3, #4]
 80032bc:	4b47      	ldr	r3, [pc, #284]	; (80033dc <HAL_RCC_ClockConfig+0x188>)
 80032be:	685b      	ldr	r3, [r3, #4]
 80032c0:	22f0      	movs	r2, #240	; 0xf0
 80032c2:	4393      	bics	r3, r2
 80032c4:	0019      	movs	r1, r3
 80032c6:	687b      	ldr	r3, [r7, #4]
 80032c8:	689a      	ldr	r2, [r3, #8]
 80032ca:	4b44      	ldr	r3, [pc, #272]	; (80033dc <HAL_RCC_ClockConfig+0x188>)
 80032cc:	430a      	orrs	r2, r1
 80032ce:	605a      	str	r2, [r3, #4]
 80032d0:	687b      	ldr	r3, [r7, #4]
 80032d2:	681b      	ldr	r3, [r3, #0]
 80032d4:	2201      	movs	r2, #1
 80032d6:	4013      	ands	r3, r2
 80032d8:	d040      	beq.n	800335c <HAL_RCC_ClockConfig+0x108>
 80032da:	687b      	ldr	r3, [r7, #4]
 80032dc:	685b      	ldr	r3, [r3, #4]
 80032de:	2b01      	cmp	r3, #1
 80032e0:	d107      	bne.n	80032f2 <HAL_RCC_ClockConfig+0x9e>
 80032e2:	4b3e      	ldr	r3, [pc, #248]	; (80033dc <HAL_RCC_ClockConfig+0x188>)
 80032e4:	681a      	ldr	r2, [r3, #0]
 80032e6:	2380      	movs	r3, #128	; 0x80
 80032e8:	029b      	lsls	r3, r3, #10
 80032ea:	4013      	ands	r3, r2
 80032ec:	d114      	bne.n	8003318 <HAL_RCC_ClockConfig+0xc4>
 80032ee:	2301      	movs	r3, #1
 80032f0:	e06e      	b.n	80033d0 <HAL_RCC_ClockConfig+0x17c>
 80032f2:	687b      	ldr	r3, [r7, #4]
 80032f4:	685b      	ldr	r3, [r3, #4]
 80032f6:	2b02      	cmp	r3, #2
 80032f8:	d107      	bne.n	800330a <HAL_RCC_ClockConfig+0xb6>
 80032fa:	4b38      	ldr	r3, [pc, #224]	; (80033dc <HAL_RCC_ClockConfig+0x188>)
 80032fc:	681a      	ldr	r2, [r3, #0]
 80032fe:	2380      	movs	r3, #128	; 0x80
 8003300:	049b      	lsls	r3, r3, #18
 8003302:	4013      	ands	r3, r2
 8003304:	d108      	bne.n	8003318 <HAL_RCC_ClockConfig+0xc4>
 8003306:	2301      	movs	r3, #1
 8003308:	e062      	b.n	80033d0 <HAL_RCC_ClockConfig+0x17c>
 800330a:	4b34      	ldr	r3, [pc, #208]	; (80033dc <HAL_RCC_ClockConfig+0x188>)
 800330c:	681b      	ldr	r3, [r3, #0]
 800330e:	2202      	movs	r2, #2
 8003310:	4013      	ands	r3, r2
 8003312:	d101      	bne.n	8003318 <HAL_RCC_ClockConfig+0xc4>
 8003314:	2301      	movs	r3, #1
 8003316:	e05b      	b.n	80033d0 <HAL_RCC_ClockConfig+0x17c>
 8003318:	4b30      	ldr	r3, [pc, #192]	; (80033dc <HAL_RCC_ClockConfig+0x188>)
 800331a:	685b      	ldr	r3, [r3, #4]
 800331c:	2203      	movs	r2, #3
 800331e:	4393      	bics	r3, r2
 8003320:	0019      	movs	r1, r3
 8003322:	687b      	ldr	r3, [r7, #4]
 8003324:	685a      	ldr	r2, [r3, #4]
 8003326:	4b2d      	ldr	r3, [pc, #180]	; (80033dc <HAL_RCC_ClockConfig+0x188>)
 8003328:	430a      	orrs	r2, r1
 800332a:	605a      	str	r2, [r3, #4]
 800332c:	f7ff f840 	bl	80023b0 <HAL_GetTick>
 8003330:	0003      	movs	r3, r0
 8003332:	60fb      	str	r3, [r7, #12]
 8003334:	e009      	b.n	800334a <HAL_RCC_ClockConfig+0xf6>
 8003336:	f7ff f83b 	bl	80023b0 <HAL_GetTick>
 800333a:	0002      	movs	r2, r0
 800333c:	68fb      	ldr	r3, [r7, #12]
 800333e:	1ad3      	subs	r3, r2, r3
 8003340:	4a27      	ldr	r2, [pc, #156]	; (80033e0 <HAL_RCC_ClockConfig+0x18c>)
 8003342:	4293      	cmp	r3, r2
 8003344:	d901      	bls.n	800334a <HAL_RCC_ClockConfig+0xf6>
 8003346:	2303      	movs	r3, #3
 8003348:	e042      	b.n	80033d0 <HAL_RCC_ClockConfig+0x17c>
 800334a:	4b24      	ldr	r3, [pc, #144]	; (80033dc <HAL_RCC_ClockConfig+0x188>)
 800334c:	685b      	ldr	r3, [r3, #4]
 800334e:	220c      	movs	r2, #12
 8003350:	401a      	ands	r2, r3
 8003352:	687b      	ldr	r3, [r7, #4]
 8003354:	685b      	ldr	r3, [r3, #4]
 8003356:	009b      	lsls	r3, r3, #2
 8003358:	429a      	cmp	r2, r3
 800335a:	d1ec      	bne.n	8003336 <HAL_RCC_ClockConfig+0xe2>
 800335c:	4b1e      	ldr	r3, [pc, #120]	; (80033d8 <HAL_RCC_ClockConfig+0x184>)
 800335e:	681b      	ldr	r3, [r3, #0]
 8003360:	2201      	movs	r2, #1
 8003362:	4013      	ands	r3, r2
 8003364:	683a      	ldr	r2, [r7, #0]
 8003366:	429a      	cmp	r2, r3
 8003368:	d211      	bcs.n	800338e <HAL_RCC_ClockConfig+0x13a>
 800336a:	4b1b      	ldr	r3, [pc, #108]	; (80033d8 <HAL_RCC_ClockConfig+0x184>)
 800336c:	681b      	ldr	r3, [r3, #0]
 800336e:	2201      	movs	r2, #1
 8003370:	4393      	bics	r3, r2
 8003372:	0019      	movs	r1, r3
 8003374:	4b18      	ldr	r3, [pc, #96]	; (80033d8 <HAL_RCC_ClockConfig+0x184>)
 8003376:	683a      	ldr	r2, [r7, #0]
 8003378:	430a      	orrs	r2, r1
 800337a:	601a      	str	r2, [r3, #0]
 800337c:	4b16      	ldr	r3, [pc, #88]	; (80033d8 <HAL_RCC_ClockConfig+0x184>)
 800337e:	681b      	ldr	r3, [r3, #0]
 8003380:	2201      	movs	r2, #1
 8003382:	4013      	ands	r3, r2
 8003384:	683a      	ldr	r2, [r7, #0]
 8003386:	429a      	cmp	r2, r3
 8003388:	d001      	beq.n	800338e <HAL_RCC_ClockConfig+0x13a>
 800338a:	2301      	movs	r3, #1
 800338c:	e020      	b.n	80033d0 <HAL_RCC_ClockConfig+0x17c>
 800338e:	687b      	ldr	r3, [r7, #4]
 8003390:	681b      	ldr	r3, [r3, #0]
 8003392:	2204      	movs	r2, #4
 8003394:	4013      	ands	r3, r2
 8003396:	d009      	beq.n	80033ac <HAL_RCC_ClockConfig+0x158>
 8003398:	4b10      	ldr	r3, [pc, #64]	; (80033dc <HAL_RCC_ClockConfig+0x188>)
 800339a:	685b      	ldr	r3, [r3, #4]
 800339c:	4a11      	ldr	r2, [pc, #68]	; (80033e4 <HAL_RCC_ClockConfig+0x190>)
 800339e:	4013      	ands	r3, r2
 80033a0:	0019      	movs	r1, r3
 80033a2:	687b      	ldr	r3, [r7, #4]
 80033a4:	68da      	ldr	r2, [r3, #12]
 80033a6:	4b0d      	ldr	r3, [pc, #52]	; (80033dc <HAL_RCC_ClockConfig+0x188>)
 80033a8:	430a      	orrs	r2, r1
 80033aa:	605a      	str	r2, [r3, #4]
 80033ac:	f000 f820 	bl	80033f0 <HAL_RCC_GetSysClockFreq>
 80033b0:	0001      	movs	r1, r0
 80033b2:	4b0a      	ldr	r3, [pc, #40]	; (80033dc <HAL_RCC_ClockConfig+0x188>)
 80033b4:	685b      	ldr	r3, [r3, #4]
 80033b6:	091b      	lsrs	r3, r3, #4
 80033b8:	220f      	movs	r2, #15
 80033ba:	4013      	ands	r3, r2
 80033bc:	4a0a      	ldr	r2, [pc, #40]	; (80033e8 <HAL_RCC_ClockConfig+0x194>)
 80033be:	5cd3      	ldrb	r3, [r2, r3]
 80033c0:	000a      	movs	r2, r1
 80033c2:	40da      	lsrs	r2, r3
 80033c4:	4b09      	ldr	r3, [pc, #36]	; (80033ec <HAL_RCC_ClockConfig+0x198>)
 80033c6:	601a      	str	r2, [r3, #0]
 80033c8:	2003      	movs	r0, #3
 80033ca:	f7fe ffab 	bl	8002324 <HAL_InitTick>
 80033ce:	2300      	movs	r3, #0
 80033d0:	0018      	movs	r0, r3
 80033d2:	46bd      	mov	sp, r7
 80033d4:	b004      	add	sp, #16
 80033d6:	bd80      	pop	{r7, pc}
 80033d8:	40022000 	.word	0x40022000
 80033dc:	40021000 	.word	0x40021000
 80033e0:	00001388 	.word	0x00001388
 80033e4:	fffff8ff 	.word	0xfffff8ff
 80033e8:	08004ae8 	.word	0x08004ae8
 80033ec:	20000000 	.word	0x20000000

080033f0 <HAL_RCC_GetSysClockFreq>:
 80033f0:	b590      	push	{r4, r7, lr}
 80033f2:	b08f      	sub	sp, #60	; 0x3c
 80033f4:	af00      	add	r7, sp, #0
 80033f6:	2314      	movs	r3, #20
 80033f8:	18fb      	adds	r3, r7, r3
 80033fa:	4a2b      	ldr	r2, [pc, #172]	; (80034a8 <HAL_RCC_GetSysClockFreq+0xb8>)
 80033fc:	ca13      	ldmia	r2!, {r0, r1, r4}
 80033fe:	c313      	stmia	r3!, {r0, r1, r4}
 8003400:	6812      	ldr	r2, [r2, #0]
 8003402:	601a      	str	r2, [r3, #0]
 8003404:	1d3b      	adds	r3, r7, #4
 8003406:	4a29      	ldr	r2, [pc, #164]	; (80034ac <HAL_RCC_GetSysClockFreq+0xbc>)
 8003408:	ca13      	ldmia	r2!, {r0, r1, r4}
 800340a:	c313      	stmia	r3!, {r0, r1, r4}
 800340c:	6812      	ldr	r2, [r2, #0]
 800340e:	601a      	str	r2, [r3, #0]
 8003410:	2300      	movs	r3, #0
 8003412:	62fb      	str	r3, [r7, #44]	; 0x2c
 8003414:	2300      	movs	r3, #0
 8003416:	62bb      	str	r3, [r7, #40]	; 0x28
 8003418:	2300      	movs	r3, #0
 800341a:	637b      	str	r3, [r7, #52]	; 0x34
 800341c:	2300      	movs	r3, #0
 800341e:	627b      	str	r3, [r7, #36]	; 0x24
 8003420:	2300      	movs	r3, #0
 8003422:	633b      	str	r3, [r7, #48]	; 0x30
 8003424:	4b22      	ldr	r3, [pc, #136]	; (80034b0 <HAL_RCC_GetSysClockFreq+0xc0>)
 8003426:	685b      	ldr	r3, [r3, #4]
 8003428:	62fb      	str	r3, [r7, #44]	; 0x2c
 800342a:	6afb      	ldr	r3, [r7, #44]	; 0x2c
 800342c:	220c      	movs	r2, #12
 800342e:	4013      	ands	r3, r2
 8003430:	2b04      	cmp	r3, #4
 8003432:	d002      	beq.n	800343a <HAL_RCC_GetSysClockFreq+0x4a>
 8003434:	2b08      	cmp	r3, #8
 8003436:	d003      	beq.n	8003440 <HAL_RCC_GetSysClockFreq+0x50>
 8003438:	e02d      	b.n	8003496 <HAL_RCC_GetSysClockFreq+0xa6>
 800343a:	4b1e      	ldr	r3, [pc, #120]	; (80034b4 <HAL_RCC_GetSysClockFreq+0xc4>)
 800343c:	633b      	str	r3, [r7, #48]	; 0x30
 800343e:	e02d      	b.n	800349c <HAL_RCC_GetSysClockFreq+0xac>
 8003440:	6afb      	ldr	r3, [r7, #44]	; 0x2c
 8003442:	0c9b      	lsrs	r3, r3, #18
 8003444:	220f      	movs	r2, #15
 8003446:	4013      	ands	r3, r2
 8003448:	2214      	movs	r2, #20
 800344a:	18ba      	adds	r2, r7, r2
 800344c:	5cd3      	ldrb	r3, [r2, r3]
 800344e:	627b      	str	r3, [r7, #36]	; 0x24
 8003450:	4b17      	ldr	r3, [pc, #92]	; (80034b0 <HAL_RCC_GetSysClockFreq+0xc0>)
 8003452:	6adb      	ldr	r3, [r3, #44]	; 0x2c
 8003454:	220f      	movs	r2, #15
 8003456:	4013      	ands	r3, r2
 8003458:	1d3a      	adds	r2, r7, #4
 800345a:	5cd3      	ldrb	r3, [r2, r3]
 800345c:	62bb      	str	r3, [r7, #40]	; 0x28
 800345e:	6afa      	ldr	r2, [r7, #44]	; 0x2c
 8003460:	2380      	movs	r3, #128	; 0x80
 8003462:	025b      	lsls	r3, r3, #9
 8003464:	4013      	ands	r3, r2
 8003466:	d009      	beq.n	800347c <HAL_RCC_GetSysClockFreq+0x8c>
 8003468:	6ab9      	ldr	r1, [r7, #40]	; 0x28
 800346a:	4812      	ldr	r0, [pc, #72]	; (80034b4 <HAL_RCC_GetSysClockFreq+0xc4>)
 800346c:	f7fc fe54 	bl	8000118 <__udivsi3>
 8003470:	0003      	movs	r3, r0
 8003472:	001a      	movs	r2, r3
 8003474:	6a7b      	ldr	r3, [r7, #36]	; 0x24
 8003476:	4353      	muls	r3, r2
 8003478:	637b      	str	r3, [r7, #52]	; 0x34
 800347a:	e009      	b.n	8003490 <HAL_RCC_GetSysClockFreq+0xa0>
 800347c:	6a79      	ldr	r1, [r7, #36]	; 0x24
 800347e:	000a      	movs	r2, r1
 8003480:	0152      	lsls	r2, r2, #5
 8003482:	1a52      	subs	r2, r2, r1
 8003484:	0193      	lsls	r3, r2, #6
 8003486:	1a9b      	subs	r3, r3, r2
 8003488:	00db      	lsls	r3, r3, #3
 800348a:	185b      	adds	r3, r3, r1
 800348c:	021b      	lsls	r3, r3, #8
 800348e:	637b      	str	r3, [r7, #52]	; 0x34
 8003490:	6b7b      	ldr	r3, [r7, #52]	; 0x34
 8003492:	633b      	str	r3, [r7, #48]	; 0x30
 8003494:	e002      	b.n	800349c <HAL_RCC_GetSysClockFreq+0xac>
 8003496:	4b07      	ldr	r3, [pc, #28]	; (80034b4 <HAL_RCC_GetSysClockFreq+0xc4>)
 8003498:	633b      	str	r3, [r7, #48]	; 0x30
 800349a:	46c0      	nop			; (mov r8, r8)
 800349c:	6b3b      	ldr	r3, [r7, #48]	; 0x30
 800349e:	0018      	movs	r0, r3
 80034a0:	46bd      	mov	sp, r7
 80034a2:	b00f      	add	sp, #60	; 0x3c
 80034a4:	bd90      	pop	{r4, r7, pc}
 80034a6:	46c0      	nop			; (mov r8, r8)
 80034a8:	08004ac8 	.word	0x08004ac8
 80034ac:	08004ad8 	.word	0x08004ad8
 80034b0:	40021000 	.word	0x40021000
 80034b4:	007a1200 	.word	0x007a1200

080034b8 <HAL_RCC_GetHCLKFreq>:
 80034b8:	b580      	push	{r7, lr}
 80034ba:	af00      	add	r7, sp, #0
 80034bc:	4b02      	ldr	r3, [pc, #8]	; (80034c8 <HAL_RCC_GetHCLKFreq+0x10>)
 80034be:	681b      	ldr	r3, [r3, #0]
 80034c0:	0018      	movs	r0, r3
 80034c2:	46bd      	mov	sp, r7
 80034c4:	bd80      	pop	{r7, pc}
 80034c6:	46c0      	nop			; (mov r8, r8)
 80034c8:	20000000 	.word	0x20000000

080034cc <HAL_RCC_GetPCLK1Freq>:
 80034cc:	b580      	push	{r7, lr}
 80034ce:	af00      	add	r7, sp, #0
 80034d0:	f7ff fff2 	bl	80034b8 <HAL_RCC_GetHCLKFreq>
 80034d4:	0001      	movs	r1, r0
 80034d6:	4b06      	ldr	r3, [pc, #24]	; (80034f0 <HAL_RCC_GetPCLK1Freq+0x24>)
 80034d8:	685b      	ldr	r3, [r3, #4]
 80034da:	0a1b      	lsrs	r3, r3, #8
 80034dc:	2207      	movs	r2, #7
 80034de:	4013      	ands	r3, r2
 80034e0:	4a04      	ldr	r2, [pc, #16]	; (80034f4 <HAL_RCC_GetPCLK1Freq+0x28>)
 80034e2:	5cd3      	ldrb	r3, [r2, r3]
 80034e4:	40d9      	lsrs	r1, r3
 80034e6:	000b      	movs	r3, r1
 80034e8:	0018      	movs	r0, r3
 80034ea:	46bd      	mov	sp, r7
 80034ec:	bd80      	pop	{r7, pc}
 80034ee:	46c0      	nop			; (mov r8, r8)
 80034f0:	40021000 	.word	0x40021000
 80034f4:	08004af8 	.word	0x08004af8

080034f8 <HAL_RCCEx_PeriphCLKConfig>:
 80034f8:	b580      	push	{r7, lr}
 80034fa:	b086      	sub	sp, #24
 80034fc:	af00      	add	r7, sp, #0
 80034fe:	6078      	str	r0, [r7, #4]
 8003500:	2300      	movs	r3, #0
 8003502:	613b      	str	r3, [r7, #16]
 8003504:	2300      	movs	r3, #0
 8003506:	60fb      	str	r3, [r7, #12]
 8003508:	687b      	ldr	r3, [r7, #4]
 800350a:	681a      	ldr	r2, [r3, #0]
 800350c:	2380      	movs	r3, #128	; 0x80
 800350e:	025b      	lsls	r3, r3, #9
 8003510:	4013      	ands	r3, r2
 8003512:	d100      	bne.n	8003516 <HAL_RCCEx_PeriphCLKConfig+0x1e>
 8003514:	e08e      	b.n	8003634 <HAL_RCCEx_PeriphCLKConfig+0x13c>
 8003516:	2017      	movs	r0, #23
 8003518:	183b      	adds	r3, r7, r0
 800351a:	2200      	movs	r2, #0
 800351c:	701a      	strb	r2, [r3, #0]
 800351e:	4b57      	ldr	r3, [pc, #348]	; (800367c <HAL_RCCEx_PeriphCLKConfig+0x184>)
 8003520:	69da      	ldr	r2, [r3, #28]
 8003522:	2380      	movs	r3, #128	; 0x80
 8003524:	055b      	lsls	r3, r3, #21
 8003526:	4013      	ands	r3, r2
 8003528:	d110      	bne.n	800354c <HAL_RCCEx_PeriphCLKConfig+0x54>
 800352a:	4b54      	ldr	r3, [pc, #336]	; (800367c <HAL_RCCEx_PeriphCLKConfig+0x184>)
 800352c:	69da      	ldr	r2, [r3, #28]
 800352e:	4b53      	ldr	r3, [pc, #332]	; (800367c <HAL_RCCEx_PeriphCLKConfig+0x184>)
 8003530:	2180      	movs	r1, #128	; 0x80
 8003532:	0549      	lsls	r1, r1, #21
 8003534:	430a      	orrs	r2, r1
 8003536:	61da      	str	r2, [r3, #28]
 8003538:	4b50      	ldr	r3, [pc, #320]	; (800367c <HAL_RCCEx_PeriphCLKConfig+0x184>)
 800353a:	69da      	ldr	r2, [r3, #28]
 800353c:	2380      	movs	r3, #128	; 0x80
 800353e:	055b      	lsls	r3, r3, #21
 8003540:	4013      	ands	r3, r2
 8003542:	60bb      	str	r3, [r7, #8]
 8003544:	68bb      	ldr	r3, [r7, #8]
 8003546:	183b      	adds	r3, r7, r0
 8003548:	2201      	movs	r2, #1
 800354a:	701a      	strb	r2, [r3, #0]
 800354c:	4b4c      	ldr	r3, [pc, #304]	; (8003680 <HAL_RCCEx_PeriphCLKConfig+0x188>)
 800354e:	681a      	ldr	r2, [r3, #0]
 8003550:	2380      	movs	r3, #128	; 0x80
 8003552:	005b      	lsls	r3, r3, #1
 8003554:	4013      	ands	r3, r2
 8003556:	d11a      	bne.n	800358e <HAL_RCCEx_PeriphCLKConfig+0x96>
 8003558:	4b49      	ldr	r3, [pc, #292]	; (8003680 <HAL_RCCEx_PeriphCLKConfig+0x188>)
 800355a:	681a      	ldr	r2, [r3, #0]
 800355c:	4b48      	ldr	r3, [pc, #288]	; (8003680 <HAL_RCCEx_PeriphCLKConfig+0x188>)
 800355e:	2180      	movs	r1, #128	; 0x80
 8003560:	0049      	lsls	r1, r1, #1
 8003562:	430a      	orrs	r2, r1
 8003564:	601a      	str	r2, [r3, #0]
 8003566:	f7fe ff23 	bl	80023b0 <HAL_GetTick>
 800356a:	0003      	movs	r3, r0
 800356c:	613b      	str	r3, [r7, #16]
 800356e:	e008      	b.n	8003582 <HAL_RCCEx_PeriphCLKConfig+0x8a>
 8003570:	f7fe ff1e 	bl	80023b0 <HAL_GetTick>
 8003574:	0002      	movs	r2, r0
 8003576:	693b      	ldr	r3, [r7, #16]
 8003578:	1ad3      	subs	r3, r2, r3
 800357a:	2b64      	cmp	r3, #100	; 0x64
 800357c:	d901      	bls.n	8003582 <HAL_RCCEx_PeriphCLKConfig+0x8a>
 800357e:	2303      	movs	r3, #3
 8003580:	e077      	b.n	8003672 <HAL_RCCEx_PeriphCLKConfig+0x17a>
 8003582:	4b3f      	ldr	r3, [pc, #252]	; (8003680 <HAL_RCCEx_PeriphCLKConfig+0x188>)
 8003584:	681a      	ldr	r2, [r3, #0]
 8003586:	2380      	movs	r3, #128	; 0x80
 8003588:	005b      	lsls	r3, r3, #1
 800358a:	4013      	ands	r3, r2
 800358c:	d0f0      	beq.n	8003570 <HAL_RCCEx_PeriphCLKConfig+0x78>
 800358e:	4b3b      	ldr	r3, [pc, #236]	; (800367c <HAL_RCCEx_PeriphCLKConfig+0x184>)
 8003590:	6a1a      	ldr	r2, [r3, #32]
 8003592:	23c0      	movs	r3, #192	; 0xc0
 8003594:	009b      	lsls	r3, r3, #2
 8003596:	4013      	ands	r3, r2
 8003598:	60fb      	str	r3, [r7, #12]
 800359a:	68fb      	ldr	r3, [r7, #12]
 800359c:	2b00      	cmp	r3, #0
 800359e:	d034      	beq.n	800360a <HAL_RCCEx_PeriphCLKConfig+0x112>
 80035a0:	687b      	ldr	r3, [r7, #4]
 80035a2:	685a      	ldr	r2, [r3, #4]
 80035a4:	23c0      	movs	r3, #192	; 0xc0
 80035a6:	009b      	lsls	r3, r3, #2
 80035a8:	4013      	ands	r3, r2
 80035aa:	68fa      	ldr	r2, [r7, #12]
 80035ac:	429a      	cmp	r2, r3
 80035ae:	d02c      	beq.n	800360a <HAL_RCCEx_PeriphCLKConfig+0x112>
 80035b0:	4b32      	ldr	r3, [pc, #200]	; (800367c <HAL_RCCEx_PeriphCLKConfig+0x184>)
 80035b2:	6a1b      	ldr	r3, [r3, #32]
 80035b4:	4a33      	ldr	r2, [pc, #204]	; (8003684 <HAL_RCCEx_PeriphCLKConfig+0x18c>)
 80035b6:	4013      	ands	r3, r2
 80035b8:	60fb      	str	r3, [r7, #12]
 80035ba:	4b30      	ldr	r3, [pc, #192]	; (800367c <HAL_RCCEx_PeriphCLKConfig+0x184>)
 80035bc:	6a1a      	ldr	r2, [r3, #32]
 80035be:	4b2f      	ldr	r3, [pc, #188]	; (800367c <HAL_RCCEx_PeriphCLKConfig+0x184>)
 80035c0:	2180      	movs	r1, #128	; 0x80
 80035c2:	0249      	lsls	r1, r1, #9
 80035c4:	430a      	orrs	r2, r1
 80035c6:	621a      	str	r2, [r3, #32]
 80035c8:	4b2c      	ldr	r3, [pc, #176]	; (800367c <HAL_RCCEx_PeriphCLKConfig+0x184>)
 80035ca:	6a1a      	ldr	r2, [r3, #32]
 80035cc:	4b2b      	ldr	r3, [pc, #172]	; (800367c <HAL_RCCEx_PeriphCLKConfig+0x184>)
 80035ce:	492e      	ldr	r1, [pc, #184]	; (8003688 <HAL_RCCEx_PeriphCLKConfig+0x190>)
 80035d0:	400a      	ands	r2, r1
 80035d2:	621a      	str	r2, [r3, #32]
 80035d4:	4b29      	ldr	r3, [pc, #164]	; (800367c <HAL_RCCEx_PeriphCLKConfig+0x184>)
 80035d6:	68fa      	ldr	r2, [r7, #12]
 80035d8:	621a      	str	r2, [r3, #32]
 80035da:	68fb      	ldr	r3, [r7, #12]
 80035dc:	2201      	movs	r2, #1
 80035de:	4013      	ands	r3, r2
 80035e0:	d013      	beq.n	800360a <HAL_RCCEx_PeriphCLKConfig+0x112>
 80035e2:	f7fe fee5 	bl	80023b0 <HAL_GetTick>
 80035e6:	0003      	movs	r3, r0
 80035e8:	613b      	str	r3, [r7, #16]
 80035ea:	e009      	b.n	8003600 <HAL_RCCEx_PeriphCLKConfig+0x108>
 80035ec:	f7fe fee0 	bl	80023b0 <HAL_GetTick>
 80035f0:	0002      	movs	r2, r0
 80035f2:	693b      	ldr	r3, [r7, #16]
 80035f4:	1ad3      	subs	r3, r2, r3
 80035f6:	4a25      	ldr	r2, [pc, #148]	; (800368c <HAL_RCCEx_PeriphCLKConfig+0x194>)
 80035f8:	4293      	cmp	r3, r2
 80035fa:	d901      	bls.n	8003600 <HAL_RCCEx_PeriphCLKConfig+0x108>
 80035fc:	2303      	movs	r3, #3
 80035fe:	e038      	b.n	8003672 <HAL_RCCEx_PeriphCLKConfig+0x17a>
 8003600:	4b1e      	ldr	r3, [pc, #120]	; (800367c <HAL_RCCEx_PeriphCLKConfig+0x184>)
 8003602:	6a1b      	ldr	r3, [r3, #32]
 8003604:	2202      	movs	r2, #2
 8003606:	4013      	ands	r3, r2
 8003608:	d0f0      	beq.n	80035ec <HAL_RCCEx_PeriphCLKConfig+0xf4>
 800360a:	4b1c      	ldr	r3, [pc, #112]	; (800367c <HAL_RCCEx_PeriphCLKConfig+0x184>)
 800360c:	6a1b      	ldr	r3, [r3, #32]
 800360e:	4a1d      	ldr	r2, [pc, #116]	; (8003684 <HAL_RCCEx_PeriphCLKConfig+0x18c>)
 8003610:	4013      	ands	r3, r2
 8003612:	0019      	movs	r1, r3
 8003614:	687b      	ldr	r3, [r7, #4]
 8003616:	685a      	ldr	r2, [r3, #4]
 8003618:	4b18      	ldr	r3, [pc, #96]	; (800367c <HAL_RCCEx_PeriphCLKConfig+0x184>)
 800361a:	430a      	orrs	r2, r1
 800361c:	621a      	str	r2, [r3, #32]
 800361e:	2317      	movs	r3, #23
 8003620:	18fb      	adds	r3, r7, r3
 8003622:	781b      	ldrb	r3, [r3, #0]
 8003624:	2b01      	cmp	r3, #1
 8003626:	d105      	bne.n	8003634 <HAL_RCCEx_PeriphCLKConfig+0x13c>
 8003628:	4b14      	ldr	r3, [pc, #80]	; (800367c <HAL_RCCEx_PeriphCLKConfig+0x184>)
 800362a:	69da      	ldr	r2, [r3, #28]
 800362c:	4b13      	ldr	r3, [pc, #76]	; (800367c <HAL_RCCEx_PeriphCLKConfig+0x184>)
 800362e:	4918      	ldr	r1, [pc, #96]	; (8003690 <HAL_RCCEx_PeriphCLKConfig+0x198>)
 8003630:	400a      	ands	r2, r1
 8003632:	61da      	str	r2, [r3, #28]
 8003634:	687b      	ldr	r3, [r7, #4]
 8003636:	681b      	ldr	r3, [r3, #0]
 8003638:	2201      	movs	r2, #1
 800363a:	4013      	ands	r3, r2
 800363c:	d009      	beq.n	8003652 <HAL_RCCEx_PeriphCLKConfig+0x15a>
 800363e:	4b0f      	ldr	r3, [pc, #60]	; (800367c <HAL_RCCEx_PeriphCLKConfig+0x184>)
 8003640:	6b1b      	ldr	r3, [r3, #48]	; 0x30
 8003642:	2203      	movs	r2, #3
 8003644:	4393      	bics	r3, r2
 8003646:	0019      	movs	r1, r3
 8003648:	687b      	ldr	r3, [r7, #4]
 800364a:	689a      	ldr	r2, [r3, #8]
 800364c:	4b0b      	ldr	r3, [pc, #44]	; (800367c <HAL_RCCEx_PeriphCLKConfig+0x184>)
 800364e:	430a      	orrs	r2, r1
 8003650:	631a      	str	r2, [r3, #48]	; 0x30
 8003652:	687b      	ldr	r3, [r7, #4]
 8003654:	681b      	ldr	r3, [r3, #0]
 8003656:	2220      	movs	r2, #32
 8003658:	4013      	ands	r3, r2
 800365a:	d009      	beq.n	8003670 <HAL_RCCEx_PeriphCLKConfig+0x178>
 800365c:	4b07      	ldr	r3, [pc, #28]	; (800367c <HAL_RCCEx_PeriphCLKConfig+0x184>)
 800365e:	6b1b      	ldr	r3, [r3, #48]	; 0x30
 8003660:	2210      	movs	r2, #16
 8003662:	4393      	bics	r3, r2
 8003664:	0019      	movs	r1, r3
 8003666:	687b      	ldr	r3, [r7, #4]
 8003668:	68da      	ldr	r2, [r3, #12]
 800366a:	4b04      	ldr	r3, [pc, #16]	; (800367c <HAL_RCCEx_PeriphCLKConfig+0x184>)
 800366c:	430a      	orrs	r2, r1
 800366e:	631a      	str	r2, [r3, #48]	; 0x30
 8003670:	2300      	movs	r3, #0
 8003672:	0018      	movs	r0, r3
 8003674:	46bd      	mov	sp, r7
 8003676:	b006      	add	sp, #24
 8003678:	bd80      	pop	{r7, pc}
 800367a:	46c0      	nop			; (mov r8, r8)
 800367c:	40021000 	.word	0x40021000
 8003680:	40007000 	.word	0x40007000
 8003684:	fffffcff 	.word	0xfffffcff
 8003688:	fffeffff 	.word	0xfffeffff
 800368c:	00001388 	.word	0x00001388
 8003690:	efffffff 	.word	0xefffffff

08003694 <HAL_UART_Init>:
 8003694:	b580      	push	{r7, lr}
 8003696:	b082      	sub	sp, #8
 8003698:	af00      	add	r7, sp, #0
 800369a:	6078      	str	r0, [r7, #4]
 800369c:	687b      	ldr	r3, [r7, #4]
 800369e:	2b00      	cmp	r3, #0
 80036a0:	d101      	bne.n	80036a6 <HAL_UART_Init+0x12>
 80036a2:	2301      	movs	r3, #1
 80036a4:	e044      	b.n	8003730 <HAL_UART_Init+0x9c>
 80036a6:	687b      	ldr	r3, [r7, #4]
 80036a8:	6f9b      	ldr	r3, [r3, #120]	; 0x78
 80036aa:	2b00      	cmp	r3, #0
 80036ac:	d107      	bne.n	80036be <HAL_UART_Init+0x2a>
 80036ae:	687b      	ldr	r3, [r7, #4]
 80036b0:	2274      	movs	r2, #116	; 0x74
 80036b2:	2100      	movs	r1, #0
 80036b4:	5499      	strb	r1, [r3, r2]
 80036b6:	687b      	ldr	r3, [r7, #4]
 80036b8:	0018      	movs	r0, r3
 80036ba:	f7fe fcf1 	bl	80020a0 <HAL_UART_MspInit>
 80036be:	687b      	ldr	r3, [r7, #4]
 80036c0:	2224      	movs	r2, #36	; 0x24
 80036c2:	679a      	str	r2, [r3, #120]	; 0x78
 80036c4:	687b      	ldr	r3, [r7, #4]
 80036c6:	681b      	ldr	r3, [r3, #0]
 80036c8:	681a      	ldr	r2, [r3, #0]
 80036ca:	687b      	ldr	r3, [r7, #4]
 80036cc:	681b      	ldr	r3, [r3, #0]
 80036ce:	2101      	movs	r1, #1
 80036d0:	438a      	bics	r2, r1
 80036d2:	601a      	str	r2, [r3, #0]
 80036d4:	687b      	ldr	r3, [r7, #4]
 80036d6:	0018      	movs	r0, r3
 80036d8:	f000 fc16 	bl	8003f08 <UART_SetConfig>
 80036dc:	0003      	movs	r3, r0
 80036de:	2b01      	cmp	r3, #1
 80036e0:	d101      	bne.n	80036e6 <HAL_UART_Init+0x52>
 80036e2:	2301      	movs	r3, #1
 80036e4:	e024      	b.n	8003730 <HAL_UART_Init+0x9c>
 80036e6:	687b      	ldr	r3, [r7, #4]
 80036e8:	6a5b      	ldr	r3, [r3, #36]	; 0x24
 80036ea:	2b00      	cmp	r3, #0
 80036ec:	d003      	beq.n	80036f6 <HAL_UART_Init+0x62>
 80036ee:	687b      	ldr	r3, [r7, #4]
 80036f0:	0018      	movs	r0, r3
 80036f2:	f000 fd49 	bl	8004188 <UART_AdvFeatureConfig>
 80036f6:	687b      	ldr	r3, [r7, #4]
 80036f8:	681b      	ldr	r3, [r3, #0]
 80036fa:	685a      	ldr	r2, [r3, #4]
 80036fc:	687b      	ldr	r3, [r7, #4]
 80036fe:	681b      	ldr	r3, [r3, #0]
 8003700:	490d      	ldr	r1, [pc, #52]	; (8003738 <HAL_UART_Init+0xa4>)
 8003702:	400a      	ands	r2, r1
 8003704:	605a      	str	r2, [r3, #4]
 8003706:	687b      	ldr	r3, [r7, #4]
 8003708:	681b      	ldr	r3, [r3, #0]
 800370a:	689a      	ldr	r2, [r3, #8]
 800370c:	687b      	ldr	r3, [r7, #4]
 800370e:	681b      	ldr	r3, [r3, #0]
 8003710:	2108      	movs	r1, #8
 8003712:	438a      	bics	r2, r1
 8003714:	609a      	str	r2, [r3, #8]
 8003716:	687b      	ldr	r3, [r7, #4]
 8003718:	681b      	ldr	r3, [r3, #0]
 800371a:	681a      	ldr	r2, [r3, #0]
 800371c:	687b      	ldr	r3, [r7, #4]
 800371e:	681b      	ldr	r3, [r3, #0]
 8003720:	2101      	movs	r1, #1
 8003722:	430a      	orrs	r2, r1
 8003724:	601a      	str	r2, [r3, #0]
 8003726:	687b      	ldr	r3, [r7, #4]
 8003728:	0018      	movs	r0, r3
 800372a:	f000 fde1 	bl	80042f0 <UART_CheckIdleState>
 800372e:	0003      	movs	r3, r0
 8003730:	0018      	movs	r0, r3
 8003732:	46bd      	mov	sp, r7
 8003734:	b002      	add	sp, #8
 8003736:	bd80      	pop	{r7, pc}
 8003738:	fffff7ff 	.word	0xfffff7ff

0800373c <HAL_UART_Transmit>:
 800373c:	b580      	push	{r7, lr}
 800373e:	b08a      	sub	sp, #40	; 0x28
 8003740:	af02      	add	r7, sp, #8
 8003742:	60f8      	str	r0, [r7, #12]
 8003744:	60b9      	str	r1, [r7, #8]
 8003746:	603b      	str	r3, [r7, #0]
 8003748:	1dbb      	adds	r3, r7, #6
 800374a:	801a      	strh	r2, [r3, #0]
 800374c:	68fb      	ldr	r3, [r7, #12]
 800374e:	6f9b      	ldr	r3, [r3, #120]	; 0x78
 8003750:	2b20      	cmp	r3, #32
 8003752:	d000      	beq.n	8003756 <HAL_UART_Transmit+0x1a>
 8003754:	e096      	b.n	8003884 <HAL_UART_Transmit+0x148>
 8003756:	68bb      	ldr	r3, [r7, #8]
 8003758:	2b00      	cmp	r3, #0
 800375a:	d003      	beq.n	8003764 <HAL_UART_Transmit+0x28>
 800375c:	1dbb      	adds	r3, r7, #6
 800375e:	881b      	ldrh	r3, [r3, #0]
 8003760:	2b00      	cmp	r3, #0
 8003762:	d101      	bne.n	8003768 <HAL_UART_Transmit+0x2c>
 8003764:	2301      	movs	r3, #1
 8003766:	e08e      	b.n	8003886 <HAL_UART_Transmit+0x14a>
 8003768:	68fb      	ldr	r3, [r7, #12]
 800376a:	689a      	ldr	r2, [r3, #8]
 800376c:	2380      	movs	r3, #128	; 0x80
 800376e:	015b      	lsls	r3, r3, #5
 8003770:	429a      	cmp	r2, r3
 8003772:	d109      	bne.n	8003788 <HAL_UART_Transmit+0x4c>
 8003774:	68fb      	ldr	r3, [r7, #12]
 8003776:	691b      	ldr	r3, [r3, #16]
 8003778:	2b00      	cmp	r3, #0
 800377a:	d105      	bne.n	8003788 <HAL_UART_Transmit+0x4c>
 800377c:	68bb      	ldr	r3, [r7, #8]
 800377e:	2201      	movs	r2, #1
 8003780:	4013      	ands	r3, r2
 8003782:	d001      	beq.n	8003788 <HAL_UART_Transmit+0x4c>
 8003784:	2301      	movs	r3, #1
 8003786:	e07e      	b.n	8003886 <HAL_UART_Transmit+0x14a>
 8003788:	68fb      	ldr	r3, [r7, #12]
 800378a:	2274      	movs	r2, #116	; 0x74
 800378c:	5c9b      	ldrb	r3, [r3, r2]
 800378e:	2b01      	cmp	r3, #1
 8003790:	d101      	bne.n	8003796 <HAL_UART_Transmit+0x5a>
 8003792:	2302      	movs	r3, #2
 8003794:	e077      	b.n	8003886 <HAL_UART_Transmit+0x14a>
 8003796:	68fb      	ldr	r3, [r7, #12]
 8003798:	2274      	movs	r2, #116	; 0x74
 800379a:	2101      	movs	r1, #1
 800379c:	5499      	strb	r1, [r3, r2]
 800379e:	68fb      	ldr	r3, [r7, #12]
 80037a0:	2280      	movs	r2, #128	; 0x80
 80037a2:	2100      	movs	r1, #0
 80037a4:	5099      	str	r1, [r3, r2]
 80037a6:	68fb      	ldr	r3, [r7, #12]
 80037a8:	2221      	movs	r2, #33	; 0x21
 80037aa:	679a      	str	r2, [r3, #120]	; 0x78
 80037ac:	f7fe fe00 	bl	80023b0 <HAL_GetTick>
 80037b0:	0003      	movs	r3, r0
 80037b2:	617b      	str	r3, [r7, #20]
 80037b4:	68fb      	ldr	r3, [r7, #12]
 80037b6:	1dba      	adds	r2, r7, #6
 80037b8:	2150      	movs	r1, #80	; 0x50
 80037ba:	8812      	ldrh	r2, [r2, #0]
 80037bc:	525a      	strh	r2, [r3, r1]
 80037be:	68fb      	ldr	r3, [r7, #12]
 80037c0:	1dba      	adds	r2, r7, #6
 80037c2:	2152      	movs	r1, #82	; 0x52
 80037c4:	8812      	ldrh	r2, [r2, #0]
 80037c6:	525a      	strh	r2, [r3, r1]
 80037c8:	68fb      	ldr	r3, [r7, #12]
 80037ca:	689a      	ldr	r2, [r3, #8]
 80037cc:	2380      	movs	r3, #128	; 0x80
 80037ce:	015b      	lsls	r3, r3, #5
 80037d0:	429a      	cmp	r2, r3
 80037d2:	d108      	bne.n	80037e6 <HAL_UART_Transmit+0xaa>
 80037d4:	68fb      	ldr	r3, [r7, #12]
 80037d6:	691b      	ldr	r3, [r3, #16]
 80037d8:	2b00      	cmp	r3, #0
 80037da:	d104      	bne.n	80037e6 <HAL_UART_Transmit+0xaa>
 80037dc:	2300      	movs	r3, #0
 80037de:	61fb      	str	r3, [r7, #28]
 80037e0:	68bb      	ldr	r3, [r7, #8]
 80037e2:	61bb      	str	r3, [r7, #24]
 80037e4:	e003      	b.n	80037ee <HAL_UART_Transmit+0xb2>
 80037e6:	68bb      	ldr	r3, [r7, #8]
 80037e8:	61fb      	str	r3, [r7, #28]
 80037ea:	2300      	movs	r3, #0
 80037ec:	61bb      	str	r3, [r7, #24]
 80037ee:	68fb      	ldr	r3, [r7, #12]
 80037f0:	2274      	movs	r2, #116	; 0x74
 80037f2:	2100      	movs	r1, #0
 80037f4:	5499      	strb	r1, [r3, r2]
 80037f6:	e02d      	b.n	8003854 <HAL_UART_Transmit+0x118>
 80037f8:	697a      	ldr	r2, [r7, #20]
 80037fa:	68f8      	ldr	r0, [r7, #12]
 80037fc:	683b      	ldr	r3, [r7, #0]
 80037fe:	9300      	str	r3, [sp, #0]
 8003800:	0013      	movs	r3, r2
 8003802:	2200      	movs	r2, #0
 8003804:	2180      	movs	r1, #128	; 0x80
 8003806:	f000 fdbb 	bl	8004380 <UART_WaitOnFlagUntilTimeout>
 800380a:	1e03      	subs	r3, r0, #0
 800380c:	d001      	beq.n	8003812 <HAL_UART_Transmit+0xd6>
 800380e:	2303      	movs	r3, #3
 8003810:	e039      	b.n	8003886 <HAL_UART_Transmit+0x14a>
 8003812:	69fb      	ldr	r3, [r7, #28]
 8003814:	2b00      	cmp	r3, #0
 8003816:	d10b      	bne.n	8003830 <HAL_UART_Transmit+0xf4>
 8003818:	69bb      	ldr	r3, [r7, #24]
 800381a:	881a      	ldrh	r2, [r3, #0]
 800381c:	68fb      	ldr	r3, [r7, #12]
 800381e:	681b      	ldr	r3, [r3, #0]
 8003820:	05d2      	lsls	r2, r2, #23
 8003822:	0dd2      	lsrs	r2, r2, #23
 8003824:	b292      	uxth	r2, r2
 8003826:	851a      	strh	r2, [r3, #40]	; 0x28
 8003828:	69bb      	ldr	r3, [r7, #24]
 800382a:	3302      	adds	r3, #2
 800382c:	61bb      	str	r3, [r7, #24]
 800382e:	e008      	b.n	8003842 <HAL_UART_Transmit+0x106>
 8003830:	69fb      	ldr	r3, [r7, #28]
 8003832:	781a      	ldrb	r2, [r3, #0]
 8003834:	68fb      	ldr	r3, [r7, #12]
 8003836:	681b      	ldr	r3, [r3, #0]
 8003838:	b292      	uxth	r2, r2
 800383a:	851a      	strh	r2, [r3, #40]	; 0x28
 800383c:	69fb      	ldr	r3, [r7, #28]
 800383e:	3301      	adds	r3, #1
 8003840:	61fb      	str	r3, [r7, #28]
 8003842:	68fb      	ldr	r3, [r7, #12]
 8003844:	2252      	movs	r2, #82	; 0x52
 8003846:	5a9b      	ldrh	r3, [r3, r2]
 8003848:	b29b      	uxth	r3, r3
 800384a:	3b01      	subs	r3, #1
 800384c:	b299      	uxth	r1, r3
 800384e:	68fb      	ldr	r3, [r7, #12]
 8003850:	2252      	movs	r2, #82	; 0x52
 8003852:	5299      	strh	r1, [r3, r2]
 8003854:	68fb      	ldr	r3, [r7, #12]
 8003856:	2252      	movs	r2, #82	; 0x52
 8003858:	5a9b      	ldrh	r3, [r3, r2]
 800385a:	b29b      	uxth	r3, r3
 800385c:	2b00      	cmp	r3, #0
 800385e:	d1cb      	bne.n	80037f8 <HAL_UART_Transmit+0xbc>
 8003860:	697a      	ldr	r2, [r7, #20]
 8003862:	68f8      	ldr	r0, [r7, #12]
 8003864:	683b      	ldr	r3, [r7, #0]
 8003866:	9300      	str	r3, [sp, #0]
 8003868:	0013      	movs	r3, r2
 800386a:	2200      	movs	r2, #0
 800386c:	2140      	movs	r1, #64	; 0x40
 800386e:	f000 fd87 	bl	8004380 <UART_WaitOnFlagUntilTimeout>
 8003872:	1e03      	subs	r3, r0, #0
 8003874:	d001      	beq.n	800387a <HAL_UART_Transmit+0x13e>
 8003876:	2303      	movs	r3, #3
 8003878:	e005      	b.n	8003886 <HAL_UART_Transmit+0x14a>
 800387a:	68fb      	ldr	r3, [r7, #12]
 800387c:	2220      	movs	r2, #32
 800387e:	679a      	str	r2, [r3, #120]	; 0x78
 8003880:	2300      	movs	r3, #0
 8003882:	e000      	b.n	8003886 <HAL_UART_Transmit+0x14a>
 8003884:	2302      	movs	r3, #2
 8003886:	0018      	movs	r0, r3
 8003888:	46bd      	mov	sp, r7
 800388a:	b008      	add	sp, #32
 800388c:	bd80      	pop	{r7, pc}

0800388e <HAL_UART_Receive_IT>:
 800388e:	b580      	push	{r7, lr}
 8003890:	b088      	sub	sp, #32
 8003892:	af00      	add	r7, sp, #0
 8003894:	60f8      	str	r0, [r7, #12]
 8003896:	60b9      	str	r1, [r7, #8]
 8003898:	1dbb      	adds	r3, r7, #6
 800389a:	801a      	strh	r2, [r3, #0]
 800389c:	68fb      	ldr	r3, [r7, #12]
 800389e:	6fdb      	ldr	r3, [r3, #124]	; 0x7c
 80038a0:	2b20      	cmp	r3, #32
 80038a2:	d150      	bne.n	8003946 <HAL_UART_Receive_IT+0xb8>
 80038a4:	68bb      	ldr	r3, [r7, #8]
 80038a6:	2b00      	cmp	r3, #0
 80038a8:	d003      	beq.n	80038b2 <HAL_UART_Receive_IT+0x24>
 80038aa:	1dbb      	adds	r3, r7, #6
 80038ac:	881b      	ldrh	r3, [r3, #0]
 80038ae:	2b00      	cmp	r3, #0
 80038b0:	d101      	bne.n	80038b6 <HAL_UART_Receive_IT+0x28>
 80038b2:	2301      	movs	r3, #1
 80038b4:	e048      	b.n	8003948 <HAL_UART_Receive_IT+0xba>
 80038b6:	68fb      	ldr	r3, [r7, #12]
 80038b8:	689a      	ldr	r2, [r3, #8]
 80038ba:	2380      	movs	r3, #128	; 0x80
 80038bc:	015b      	lsls	r3, r3, #5
 80038be:	429a      	cmp	r2, r3
 80038c0:	d109      	bne.n	80038d6 <HAL_UART_Receive_IT+0x48>
 80038c2:	68fb      	ldr	r3, [r7, #12]
 80038c4:	691b      	ldr	r3, [r3, #16]
 80038c6:	2b00      	cmp	r3, #0
 80038c8:	d105      	bne.n	80038d6 <HAL_UART_Receive_IT+0x48>
 80038ca:	68bb      	ldr	r3, [r7, #8]
 80038cc:	2201      	movs	r2, #1
 80038ce:	4013      	ands	r3, r2
 80038d0:	d001      	beq.n	80038d6 <HAL_UART_Receive_IT+0x48>
 80038d2:	2301      	movs	r3, #1
 80038d4:	e038      	b.n	8003948 <HAL_UART_Receive_IT+0xba>
 80038d6:	68fb      	ldr	r3, [r7, #12]
 80038d8:	2274      	movs	r2, #116	; 0x74
 80038da:	5c9b      	ldrb	r3, [r3, r2]
 80038dc:	2b01      	cmp	r3, #1
 80038de:	d101      	bne.n	80038e4 <HAL_UART_Receive_IT+0x56>
 80038e0:	2302      	movs	r3, #2
 80038e2:	e031      	b.n	8003948 <HAL_UART_Receive_IT+0xba>
 80038e4:	68fb      	ldr	r3, [r7, #12]
 80038e6:	2274      	movs	r2, #116	; 0x74
 80038e8:	2101      	movs	r1, #1
 80038ea:	5499      	strb	r1, [r3, r2]
 80038ec:	68fb      	ldr	r3, [r7, #12]
 80038ee:	2200      	movs	r2, #0
 80038f0:	661a      	str	r2, [r3, #96]	; 0x60
 80038f2:	68fb      	ldr	r3, [r7, #12]
 80038f4:	681b      	ldr	r3, [r3, #0]
 80038f6:	685a      	ldr	r2, [r3, #4]
 80038f8:	2380      	movs	r3, #128	; 0x80
 80038fa:	041b      	lsls	r3, r3, #16
 80038fc:	4013      	ands	r3, r2
 80038fe:	d019      	beq.n	8003934 <HAL_UART_Receive_IT+0xa6>
 8003900:	f3ef 8310 	mrs	r3, PRIMASK
 8003904:	613b      	str	r3, [r7, #16]
 8003906:	693b      	ldr	r3, [r7, #16]
 8003908:	61fb      	str	r3, [r7, #28]
 800390a:	2301      	movs	r3, #1
 800390c:	617b      	str	r3, [r7, #20]
 800390e:	697b      	ldr	r3, [r7, #20]
 8003910:	f383 8810 	msr	PRIMASK, r3
 8003914:	46c0      	nop			; (mov r8, r8)
 8003916:	68fb      	ldr	r3, [r7, #12]
 8003918:	681b      	ldr	r3, [r3, #0]
 800391a:	681a      	ldr	r2, [r3, #0]
 800391c:	68fb      	ldr	r3, [r7, #12]
 800391e:	681b      	ldr	r3, [r3, #0]
 8003920:	2180      	movs	r1, #128	; 0x80
 8003922:	04c9      	lsls	r1, r1, #19
 8003924:	430a      	orrs	r2, r1
 8003926:	601a      	str	r2, [r3, #0]
 8003928:	69fb      	ldr	r3, [r7, #28]
 800392a:	61bb      	str	r3, [r7, #24]
 800392c:	69bb      	ldr	r3, [r7, #24]
 800392e:	f383 8810 	msr	PRIMASK, r3
 8003932:	46c0      	nop			; (mov r8, r8)
 8003934:	1dbb      	adds	r3, r7, #6
 8003936:	881a      	ldrh	r2, [r3, #0]
 8003938:	68b9      	ldr	r1, [r7, #8]
 800393a:	68fb      	ldr	r3, [r7, #12]
 800393c:	0018      	movs	r0, r3
 800393e:	f000 fde3 	bl	8004508 <UART_Start_Receive_IT>
 8003942:	0003      	movs	r3, r0
 8003944:	e000      	b.n	8003948 <HAL_UART_Receive_IT+0xba>
 8003946:	2302      	movs	r3, #2
 8003948:	0018      	movs	r0, r3
 800394a:	46bd      	mov	sp, r7
 800394c:	b008      	add	sp, #32
 800394e:	bd80      	pop	{r7, pc}

08003950 <HAL_UART_IRQHandler>:
 8003950:	b590      	push	{r4, r7, lr}
 8003952:	b0ab      	sub	sp, #172	; 0xac
 8003954:	af00      	add	r7, sp, #0
 8003956:	6078      	str	r0, [r7, #4]
 8003958:	687b      	ldr	r3, [r7, #4]
 800395a:	681b      	ldr	r3, [r3, #0]
 800395c:	69db      	ldr	r3, [r3, #28]
 800395e:	22a4      	movs	r2, #164	; 0xa4
 8003960:	18b9      	adds	r1, r7, r2
 8003962:	600b      	str	r3, [r1, #0]
 8003964:	687b      	ldr	r3, [r7, #4]
 8003966:	681b      	ldr	r3, [r3, #0]
 8003968:	681b      	ldr	r3, [r3, #0]
 800396a:	20a0      	movs	r0, #160	; 0xa0
 800396c:	1839      	adds	r1, r7, r0
 800396e:	600b      	str	r3, [r1, #0]
 8003970:	687b      	ldr	r3, [r7, #4]
 8003972:	681b      	ldr	r3, [r3, #0]
 8003974:	689b      	ldr	r3, [r3, #8]
 8003976:	219c      	movs	r1, #156	; 0x9c
 8003978:	1879      	adds	r1, r7, r1
 800397a:	600b      	str	r3, [r1, #0]
 800397c:	0011      	movs	r1, r2
 800397e:	18bb      	adds	r3, r7, r2
 8003980:	681b      	ldr	r3, [r3, #0]
 8003982:	4a99      	ldr	r2, [pc, #612]	; (8003be8 <HAL_UART_IRQHandler+0x298>)
 8003984:	4013      	ands	r3, r2
 8003986:	2298      	movs	r2, #152	; 0x98
 8003988:	18bc      	adds	r4, r7, r2
 800398a:	6023      	str	r3, [r4, #0]
 800398c:	18bb      	adds	r3, r7, r2
 800398e:	681b      	ldr	r3, [r3, #0]
 8003990:	2b00      	cmp	r3, #0
 8003992:	d114      	bne.n	80039be <HAL_UART_IRQHandler+0x6e>
 8003994:	187b      	adds	r3, r7, r1
 8003996:	681b      	ldr	r3, [r3, #0]
 8003998:	2220      	movs	r2, #32
 800399a:	4013      	ands	r3, r2
 800399c:	d00f      	beq.n	80039be <HAL_UART_IRQHandler+0x6e>
 800399e:	183b      	adds	r3, r7, r0
 80039a0:	681b      	ldr	r3, [r3, #0]
 80039a2:	2220      	movs	r2, #32
 80039a4:	4013      	ands	r3, r2
 80039a6:	d00a      	beq.n	80039be <HAL_UART_IRQHandler+0x6e>
 80039a8:	687b      	ldr	r3, [r7, #4]
 80039aa:	6e5b      	ldr	r3, [r3, #100]	; 0x64
 80039ac:	2b00      	cmp	r3, #0
 80039ae:	d100      	bne.n	80039b2 <HAL_UART_IRQHandler+0x62>
 80039b0:	e27e      	b.n	8003eb0 <HAL_UART_IRQHandler+0x560>
 80039b2:	687b      	ldr	r3, [r7, #4]
 80039b4:	6e5b      	ldr	r3, [r3, #100]	; 0x64
 80039b6:	687a      	ldr	r2, [r7, #4]
 80039b8:	0010      	movs	r0, r2
 80039ba:	4798      	blx	r3
 80039bc:	e278      	b.n	8003eb0 <HAL_UART_IRQHandler+0x560>
 80039be:	2398      	movs	r3, #152	; 0x98
 80039c0:	18fb      	adds	r3, r7, r3
 80039c2:	681b      	ldr	r3, [r3, #0]
 80039c4:	2b00      	cmp	r3, #0
 80039c6:	d100      	bne.n	80039ca <HAL_UART_IRQHandler+0x7a>
 80039c8:	e114      	b.n	8003bf4 <HAL_UART_IRQHandler+0x2a4>
 80039ca:	239c      	movs	r3, #156	; 0x9c
 80039cc:	18fb      	adds	r3, r7, r3
 80039ce:	681b      	ldr	r3, [r3, #0]
 80039d0:	2201      	movs	r2, #1
 80039d2:	4013      	ands	r3, r2
 80039d4:	d106      	bne.n	80039e4 <HAL_UART_IRQHandler+0x94>
 80039d6:	23a0      	movs	r3, #160	; 0xa0
 80039d8:	18fb      	adds	r3, r7, r3
 80039da:	681b      	ldr	r3, [r3, #0]
 80039dc:	4a83      	ldr	r2, [pc, #524]	; (8003bec <HAL_UART_IRQHandler+0x29c>)
 80039de:	4013      	ands	r3, r2
 80039e0:	d100      	bne.n	80039e4 <HAL_UART_IRQHandler+0x94>
 80039e2:	e107      	b.n	8003bf4 <HAL_UART_IRQHandler+0x2a4>
 80039e4:	23a4      	movs	r3, #164	; 0xa4
 80039e6:	18fb      	adds	r3, r7, r3
 80039e8:	681b      	ldr	r3, [r3, #0]
 80039ea:	2201      	movs	r2, #1
 80039ec:	4013      	ands	r3, r2
 80039ee:	d012      	beq.n	8003a16 <HAL_UART_IRQHandler+0xc6>
 80039f0:	23a0      	movs	r3, #160	; 0xa0
 80039f2:	18fb      	adds	r3, r7, r3
 80039f4:	681a      	ldr	r2, [r3, #0]
 80039f6:	2380      	movs	r3, #128	; 0x80
 80039f8:	005b      	lsls	r3, r3, #1
 80039fa:	4013      	ands	r3, r2
 80039fc:	d00b      	beq.n	8003a16 <HAL_UART_IRQHandler+0xc6>
 80039fe:	687b      	ldr	r3, [r7, #4]
 8003a00:	681b      	ldr	r3, [r3, #0]
 8003a02:	2201      	movs	r2, #1
 8003a04:	621a      	str	r2, [r3, #32]
 8003a06:	687b      	ldr	r3, [r7, #4]
 8003a08:	2280      	movs	r2, #128	; 0x80
 8003a0a:	589b      	ldr	r3, [r3, r2]
 8003a0c:	2201      	movs	r2, #1
 8003a0e:	431a      	orrs	r2, r3
 8003a10:	687b      	ldr	r3, [r7, #4]
 8003a12:	2180      	movs	r1, #128	; 0x80
 8003a14:	505a      	str	r2, [r3, r1]
 8003a16:	23a4      	movs	r3, #164	; 0xa4
 8003a18:	18fb      	adds	r3, r7, r3
 8003a1a:	681b      	ldr	r3, [r3, #0]
 8003a1c:	2202      	movs	r2, #2
 8003a1e:	4013      	ands	r3, r2
 8003a20:	d011      	beq.n	8003a46 <HAL_UART_IRQHandler+0xf6>
 8003a22:	239c      	movs	r3, #156	; 0x9c
 8003a24:	18fb      	adds	r3, r7, r3
 8003a26:	681b      	ldr	r3, [r3, #0]
 8003a28:	2201      	movs	r2, #1
 8003a2a:	4013      	ands	r3, r2
 8003a2c:	d00b      	beq.n	8003a46 <HAL_UART_IRQHandler+0xf6>
 8003a2e:	687b      	ldr	r3, [r7, #4]
 8003a30:	681b      	ldr	r3, [r3, #0]
 8003a32:	2202      	movs	r2, #2
 8003a34:	621a      	str	r2, [r3, #32]
 8003a36:	687b      	ldr	r3, [r7, #4]
 8003a38:	2280      	movs	r2, #128	; 0x80
 8003a3a:	589b      	ldr	r3, [r3, r2]
 8003a3c:	2204      	movs	r2, #4
 8003a3e:	431a      	orrs	r2, r3
 8003a40:	687b      	ldr	r3, [r7, #4]
 8003a42:	2180      	movs	r1, #128	; 0x80
 8003a44:	505a      	str	r2, [r3, r1]
 8003a46:	23a4      	movs	r3, #164	; 0xa4
 8003a48:	18fb      	adds	r3, r7, r3
 8003a4a:	681b      	ldr	r3, [r3, #0]
 8003a4c:	2204      	movs	r2, #4
 8003a4e:	4013      	ands	r3, r2
 8003a50:	d011      	beq.n	8003a76 <HAL_UART_IRQHandler+0x126>
 8003a52:	239c      	movs	r3, #156	; 0x9c
 8003a54:	18fb      	adds	r3, r7, r3
 8003a56:	681b      	ldr	r3, [r3, #0]
 8003a58:	2201      	movs	r2, #1
 8003a5a:	4013      	ands	r3, r2
 8003a5c:	d00b      	beq.n	8003a76 <HAL_UART_IRQHandler+0x126>
 8003a5e:	687b      	ldr	r3, [r7, #4]
 8003a60:	681b      	ldr	r3, [r3, #0]
 8003a62:	2204      	movs	r2, #4
 8003a64:	621a      	str	r2, [r3, #32]
 8003a66:	687b      	ldr	r3, [r7, #4]
 8003a68:	2280      	movs	r2, #128	; 0x80
 8003a6a:	589b      	ldr	r3, [r3, r2]
 8003a6c:	2202      	movs	r2, #2
 8003a6e:	431a      	orrs	r2, r3
 8003a70:	687b      	ldr	r3, [r7, #4]
 8003a72:	2180      	movs	r1, #128	; 0x80
 8003a74:	505a      	str	r2, [r3, r1]
 8003a76:	23a4      	movs	r3, #164	; 0xa4
 8003a78:	18fb      	adds	r3, r7, r3
 8003a7a:	681b      	ldr	r3, [r3, #0]
 8003a7c:	2208      	movs	r2, #8
 8003a7e:	4013      	ands	r3, r2
 8003a80:	d017      	beq.n	8003ab2 <HAL_UART_IRQHandler+0x162>
 8003a82:	23a0      	movs	r3, #160	; 0xa0
 8003a84:	18fb      	adds	r3, r7, r3
 8003a86:	681b      	ldr	r3, [r3, #0]
 8003a88:	2220      	movs	r2, #32
 8003a8a:	4013      	ands	r3, r2
 8003a8c:	d105      	bne.n	8003a9a <HAL_UART_IRQHandler+0x14a>
 8003a8e:	239c      	movs	r3, #156	; 0x9c
 8003a90:	18fb      	adds	r3, r7, r3
 8003a92:	681b      	ldr	r3, [r3, #0]
 8003a94:	2201      	movs	r2, #1
 8003a96:	4013      	ands	r3, r2
 8003a98:	d00b      	beq.n	8003ab2 <HAL_UART_IRQHandler+0x162>
 8003a9a:	687b      	ldr	r3, [r7, #4]
 8003a9c:	681b      	ldr	r3, [r3, #0]
 8003a9e:	2208      	movs	r2, #8
 8003aa0:	621a      	str	r2, [r3, #32]
 8003aa2:	687b      	ldr	r3, [r7, #4]
 8003aa4:	2280      	movs	r2, #128	; 0x80
 8003aa6:	589b      	ldr	r3, [r3, r2]
 8003aa8:	2208      	movs	r2, #8
 8003aaa:	431a      	orrs	r2, r3
 8003aac:	687b      	ldr	r3, [r7, #4]
 8003aae:	2180      	movs	r1, #128	; 0x80
 8003ab0:	505a      	str	r2, [r3, r1]
 8003ab2:	23a4      	movs	r3, #164	; 0xa4
 8003ab4:	18fb      	adds	r3, r7, r3
 8003ab6:	681a      	ldr	r2, [r3, #0]
 8003ab8:	2380      	movs	r3, #128	; 0x80
 8003aba:	011b      	lsls	r3, r3, #4
 8003abc:	4013      	ands	r3, r2
 8003abe:	d013      	beq.n	8003ae8 <HAL_UART_IRQHandler+0x198>
 8003ac0:	23a0      	movs	r3, #160	; 0xa0
 8003ac2:	18fb      	adds	r3, r7, r3
 8003ac4:	681a      	ldr	r2, [r3, #0]
 8003ac6:	2380      	movs	r3, #128	; 0x80
 8003ac8:	04db      	lsls	r3, r3, #19
 8003aca:	4013      	ands	r3, r2
 8003acc:	d00c      	beq.n	8003ae8 <HAL_UART_IRQHandler+0x198>
 8003ace:	687b      	ldr	r3, [r7, #4]
 8003ad0:	681b      	ldr	r3, [r3, #0]
 8003ad2:	2280      	movs	r2, #128	; 0x80
 8003ad4:	0112      	lsls	r2, r2, #4
 8003ad6:	621a      	str	r2, [r3, #32]
 8003ad8:	687b      	ldr	r3, [r7, #4]
 8003ada:	2280      	movs	r2, #128	; 0x80
 8003adc:	589b      	ldr	r3, [r3, r2]
 8003ade:	2220      	movs	r2, #32
 8003ae0:	431a      	orrs	r2, r3
 8003ae2:	687b      	ldr	r3, [r7, #4]
 8003ae4:	2180      	movs	r1, #128	; 0x80
 8003ae6:	505a      	str	r2, [r3, r1]
 8003ae8:	687b      	ldr	r3, [r7, #4]
 8003aea:	2280      	movs	r2, #128	; 0x80
 8003aec:	589b      	ldr	r3, [r3, r2]
 8003aee:	2b00      	cmp	r3, #0
 8003af0:	d100      	bne.n	8003af4 <HAL_UART_IRQHandler+0x1a4>
 8003af2:	e1df      	b.n	8003eb4 <HAL_UART_IRQHandler+0x564>
 8003af4:	23a4      	movs	r3, #164	; 0xa4
 8003af6:	18fb      	adds	r3, r7, r3
 8003af8:	681b      	ldr	r3, [r3, #0]
 8003afa:	2220      	movs	r2, #32
 8003afc:	4013      	ands	r3, r2
 8003afe:	d00e      	beq.n	8003b1e <HAL_UART_IRQHandler+0x1ce>
 8003b00:	23a0      	movs	r3, #160	; 0xa0
 8003b02:	18fb      	adds	r3, r7, r3
 8003b04:	681b      	ldr	r3, [r3, #0]
 8003b06:	2220      	movs	r2, #32
 8003b08:	4013      	ands	r3, r2
 8003b0a:	d008      	beq.n	8003b1e <HAL_UART_IRQHandler+0x1ce>
 8003b0c:	687b      	ldr	r3, [r7, #4]
 8003b0e:	6e5b      	ldr	r3, [r3, #100]	; 0x64
 8003b10:	2b00      	cmp	r3, #0
 8003b12:	d004      	beq.n	8003b1e <HAL_UART_IRQHandler+0x1ce>
 8003b14:	687b      	ldr	r3, [r7, #4]
 8003b16:	6e5b      	ldr	r3, [r3, #100]	; 0x64
 8003b18:	687a      	ldr	r2, [r7, #4]
 8003b1a:	0010      	movs	r0, r2
 8003b1c:	4798      	blx	r3
 8003b1e:	687b      	ldr	r3, [r7, #4]
 8003b20:	2280      	movs	r2, #128	; 0x80
 8003b22:	589b      	ldr	r3, [r3, r2]
 8003b24:	2194      	movs	r1, #148	; 0x94
 8003b26:	187a      	adds	r2, r7, r1
 8003b28:	6013      	str	r3, [r2, #0]
 8003b2a:	687b      	ldr	r3, [r7, #4]
 8003b2c:	681b      	ldr	r3, [r3, #0]
 8003b2e:	689b      	ldr	r3, [r3, #8]
 8003b30:	2240      	movs	r2, #64	; 0x40
 8003b32:	4013      	ands	r3, r2
 8003b34:	2b40      	cmp	r3, #64	; 0x40
 8003b36:	d004      	beq.n	8003b42 <HAL_UART_IRQHandler+0x1f2>
 8003b38:	187b      	adds	r3, r7, r1
 8003b3a:	681b      	ldr	r3, [r3, #0]
 8003b3c:	2228      	movs	r2, #40	; 0x28
 8003b3e:	4013      	ands	r3, r2
 8003b40:	d047      	beq.n	8003bd2 <HAL_UART_IRQHandler+0x282>
 8003b42:	687b      	ldr	r3, [r7, #4]
 8003b44:	0018      	movs	r0, r3
 8003b46:	f000 fd7b 	bl	8004640 <UART_EndRxTransfer>
 8003b4a:	687b      	ldr	r3, [r7, #4]
 8003b4c:	681b      	ldr	r3, [r3, #0]
 8003b4e:	689b      	ldr	r3, [r3, #8]
 8003b50:	2240      	movs	r2, #64	; 0x40
 8003b52:	4013      	ands	r3, r2
 8003b54:	2b40      	cmp	r3, #64	; 0x40
 8003b56:	d137      	bne.n	8003bc8 <HAL_UART_IRQHandler+0x278>
 8003b58:	f3ef 8310 	mrs	r3, PRIMASK
 8003b5c:	663b      	str	r3, [r7, #96]	; 0x60
 8003b5e:	6e3b      	ldr	r3, [r7, #96]	; 0x60
 8003b60:	2090      	movs	r0, #144	; 0x90
 8003b62:	183a      	adds	r2, r7, r0
 8003b64:	6013      	str	r3, [r2, #0]
 8003b66:	2301      	movs	r3, #1
 8003b68:	667b      	str	r3, [r7, #100]	; 0x64
 8003b6a:	6e7b      	ldr	r3, [r7, #100]	; 0x64
 8003b6c:	f383 8810 	msr	PRIMASK, r3
 8003b70:	46c0      	nop			; (mov r8, r8)
 8003b72:	687b      	ldr	r3, [r7, #4]
 8003b74:	681b      	ldr	r3, [r3, #0]
 8003b76:	689a      	ldr	r2, [r3, #8]
 8003b78:	687b      	ldr	r3, [r7, #4]
 8003b7a:	681b      	ldr	r3, [r3, #0]
 8003b7c:	2140      	movs	r1, #64	; 0x40
 8003b7e:	438a      	bics	r2, r1
 8003b80:	609a      	str	r2, [r3, #8]
 8003b82:	183b      	adds	r3, r7, r0
 8003b84:	681b      	ldr	r3, [r3, #0]
 8003b86:	66bb      	str	r3, [r7, #104]	; 0x68
 8003b88:	6ebb      	ldr	r3, [r7, #104]	; 0x68
 8003b8a:	f383 8810 	msr	PRIMASK, r3
 8003b8e:	46c0      	nop			; (mov r8, r8)
 8003b90:	687b      	ldr	r3, [r7, #4]
 8003b92:	6f1b      	ldr	r3, [r3, #112]	; 0x70
 8003b94:	2b00      	cmp	r3, #0
 8003b96:	d012      	beq.n	8003bbe <HAL_UART_IRQHandler+0x26e>
 8003b98:	687b      	ldr	r3, [r7, #4]
 8003b9a:	6f1b      	ldr	r3, [r3, #112]	; 0x70
 8003b9c:	4a14      	ldr	r2, [pc, #80]	; (8003bf0 <HAL_UART_IRQHandler+0x2a0>)
 8003b9e:	635a      	str	r2, [r3, #52]	; 0x34
 8003ba0:	687b      	ldr	r3, [r7, #4]
 8003ba2:	6f1b      	ldr	r3, [r3, #112]	; 0x70
 8003ba4:	0018      	movs	r0, r3
 8003ba6:	f7fe fd8f 	bl	80026c8 <HAL_DMA_Abort_IT>
 8003baa:	1e03      	subs	r3, r0, #0
 8003bac:	d01a      	beq.n	8003be4 <HAL_UART_IRQHandler+0x294>
 8003bae:	687b      	ldr	r3, [r7, #4]
 8003bb0:	6f1b      	ldr	r3, [r3, #112]	; 0x70
 8003bb2:	6b5a      	ldr	r2, [r3, #52]	; 0x34
 8003bb4:	687b      	ldr	r3, [r7, #4]
 8003bb6:	6f1b      	ldr	r3, [r3, #112]	; 0x70
 8003bb8:	0018      	movs	r0, r3
 8003bba:	4790      	blx	r2
 8003bbc:	e012      	b.n	8003be4 <HAL_UART_IRQHandler+0x294>
 8003bbe:	687b      	ldr	r3, [r7, #4]
 8003bc0:	0018      	movs	r0, r3
 8003bc2:	f000 f98d 	bl	8003ee0 <HAL_UART_ErrorCallback>
 8003bc6:	e00d      	b.n	8003be4 <HAL_UART_IRQHandler+0x294>
 8003bc8:	687b      	ldr	r3, [r7, #4]
 8003bca:	0018      	movs	r0, r3
 8003bcc:	f000 f988 	bl	8003ee0 <HAL_UART_ErrorCallback>
 8003bd0:	e008      	b.n	8003be4 <HAL_UART_IRQHandler+0x294>
 8003bd2:	687b      	ldr	r3, [r7, #4]
 8003bd4:	0018      	movs	r0, r3
 8003bd6:	f000 f983 	bl	8003ee0 <HAL_UART_ErrorCallback>
 8003bda:	687b      	ldr	r3, [r7, #4]
 8003bdc:	2280      	movs	r2, #128	; 0x80
 8003bde:	2100      	movs	r1, #0
 8003be0:	5099      	str	r1, [r3, r2]
 8003be2:	e167      	b.n	8003eb4 <HAL_UART_IRQHandler+0x564>
 8003be4:	46c0      	nop			; (mov r8, r8)
 8003be6:	e165      	b.n	8003eb4 <HAL_UART_IRQHandler+0x564>
 8003be8:	0000080f 	.word	0x0000080f
 8003bec:	04000120 	.word	0x04000120
 8003bf0:	08004705 	.word	0x08004705
 8003bf4:	687b      	ldr	r3, [r7, #4]
 8003bf6:	6e1b      	ldr	r3, [r3, #96]	; 0x60
 8003bf8:	2b01      	cmp	r3, #1
 8003bfa:	d000      	beq.n	8003bfe <HAL_UART_IRQHandler+0x2ae>
 8003bfc:	e131      	b.n	8003e62 <HAL_UART_IRQHandler+0x512>
 8003bfe:	23a4      	movs	r3, #164	; 0xa4
 8003c00:	18fb      	adds	r3, r7, r3
 8003c02:	681b      	ldr	r3, [r3, #0]
 8003c04:	2210      	movs	r2, #16
 8003c06:	4013      	ands	r3, r2
 8003c08:	d100      	bne.n	8003c0c <HAL_UART_IRQHandler+0x2bc>
 8003c0a:	e12a      	b.n	8003e62 <HAL_UART_IRQHandler+0x512>
 8003c0c:	23a0      	movs	r3, #160	; 0xa0
 8003c0e:	18fb      	adds	r3, r7, r3
 8003c10:	681b      	ldr	r3, [r3, #0]
 8003c12:	2210      	movs	r2, #16
 8003c14:	4013      	ands	r3, r2
 8003c16:	d100      	bne.n	8003c1a <HAL_UART_IRQHandler+0x2ca>
 8003c18:	e123      	b.n	8003e62 <HAL_UART_IRQHandler+0x512>
 8003c1a:	687b      	ldr	r3, [r7, #4]
 8003c1c:	681b      	ldr	r3, [r3, #0]
 8003c1e:	2210      	movs	r2, #16
 8003c20:	621a      	str	r2, [r3, #32]
 8003c22:	687b      	ldr	r3, [r7, #4]
 8003c24:	681b      	ldr	r3, [r3, #0]
 8003c26:	689b      	ldr	r3, [r3, #8]
 8003c28:	2240      	movs	r2, #64	; 0x40
 8003c2a:	4013      	ands	r3, r2
 8003c2c:	2b40      	cmp	r3, #64	; 0x40
 8003c2e:	d000      	beq.n	8003c32 <HAL_UART_IRQHandler+0x2e2>
 8003c30:	e09b      	b.n	8003d6a <HAL_UART_IRQHandler+0x41a>
 8003c32:	687b      	ldr	r3, [r7, #4]
 8003c34:	6f1b      	ldr	r3, [r3, #112]	; 0x70
 8003c36:	681b      	ldr	r3, [r3, #0]
 8003c38:	685a      	ldr	r2, [r3, #4]
 8003c3a:	217e      	movs	r1, #126	; 0x7e
 8003c3c:	187b      	adds	r3, r7, r1
 8003c3e:	801a      	strh	r2, [r3, #0]
 8003c40:	187b      	adds	r3, r7, r1
 8003c42:	881b      	ldrh	r3, [r3, #0]
 8003c44:	2b00      	cmp	r3, #0
 8003c46:	d100      	bne.n	8003c4a <HAL_UART_IRQHandler+0x2fa>
 8003c48:	e136      	b.n	8003eb8 <HAL_UART_IRQHandler+0x568>
 8003c4a:	687b      	ldr	r3, [r7, #4]
 8003c4c:	2258      	movs	r2, #88	; 0x58
 8003c4e:	5a9b      	ldrh	r3, [r3, r2]
 8003c50:	187a      	adds	r2, r7, r1
 8003c52:	8812      	ldrh	r2, [r2, #0]
 8003c54:	429a      	cmp	r2, r3
 8003c56:	d300      	bcc.n	8003c5a <HAL_UART_IRQHandler+0x30a>
 8003c58:	e12e      	b.n	8003eb8 <HAL_UART_IRQHandler+0x568>
 8003c5a:	687b      	ldr	r3, [r7, #4]
 8003c5c:	187a      	adds	r2, r7, r1
 8003c5e:	215a      	movs	r1, #90	; 0x5a
 8003c60:	8812      	ldrh	r2, [r2, #0]
 8003c62:	525a      	strh	r2, [r3, r1]
 8003c64:	687b      	ldr	r3, [r7, #4]
 8003c66:	6f1b      	ldr	r3, [r3, #112]	; 0x70
 8003c68:	699b      	ldr	r3, [r3, #24]
 8003c6a:	2b20      	cmp	r3, #32
 8003c6c:	d06e      	beq.n	8003d4c <HAL_UART_IRQHandler+0x3fc>
 8003c6e:	f3ef 8310 	mrs	r3, PRIMASK
 8003c72:	633b      	str	r3, [r7, #48]	; 0x30
 8003c74:	6b3b      	ldr	r3, [r7, #48]	; 0x30
 8003c76:	67bb      	str	r3, [r7, #120]	; 0x78
 8003c78:	2301      	movs	r3, #1
 8003c7a:	637b      	str	r3, [r7, #52]	; 0x34
 8003c7c:	6b7b      	ldr	r3, [r7, #52]	; 0x34
 8003c7e:	f383 8810 	msr	PRIMASK, r3
 8003c82:	46c0      	nop			; (mov r8, r8)
 8003c84:	687b      	ldr	r3, [r7, #4]
 8003c86:	681b      	ldr	r3, [r3, #0]
 8003c88:	681a      	ldr	r2, [r3, #0]
 8003c8a:	687b      	ldr	r3, [r7, #4]
 8003c8c:	681b      	ldr	r3, [r3, #0]
 8003c8e:	498e      	ldr	r1, [pc, #568]	; (8003ec8 <HAL_UART_IRQHandler+0x578>)
 8003c90:	400a      	ands	r2, r1
 8003c92:	601a      	str	r2, [r3, #0]
 8003c94:	6fbb      	ldr	r3, [r7, #120]	; 0x78
 8003c96:	63bb      	str	r3, [r7, #56]	; 0x38
 8003c98:	6bbb      	ldr	r3, [r7, #56]	; 0x38
 8003c9a:	f383 8810 	msr	PRIMASK, r3
 8003c9e:	46c0      	nop			; (mov r8, r8)
 8003ca0:	f3ef 8310 	mrs	r3, PRIMASK
 8003ca4:	63fb      	str	r3, [r7, #60]	; 0x3c
 8003ca6:	6bfb      	ldr	r3, [r7, #60]	; 0x3c
 8003ca8:	677b      	str	r3, [r7, #116]	; 0x74
 8003caa:	2301      	movs	r3, #1
 8003cac:	643b      	str	r3, [r7, #64]	; 0x40
 8003cae:	6c3b      	ldr	r3, [r7, #64]	; 0x40
 8003cb0:	f383 8810 	msr	PRIMASK, r3
 8003cb4:	46c0      	nop			; (mov r8, r8)
 8003cb6:	687b      	ldr	r3, [r7, #4]
 8003cb8:	681b      	ldr	r3, [r3, #0]
 8003cba:	689a      	ldr	r2, [r3, #8]
 8003cbc:	687b      	ldr	r3, [r7, #4]
 8003cbe:	681b      	ldr	r3, [r3, #0]
 8003cc0:	2101      	movs	r1, #1
 8003cc2:	438a      	bics	r2, r1
 8003cc4:	609a      	str	r2, [r3, #8]
 8003cc6:	6f7b      	ldr	r3, [r7, #116]	; 0x74
 8003cc8:	647b      	str	r3, [r7, #68]	; 0x44
 8003cca:	6c7b      	ldr	r3, [r7, #68]	; 0x44
 8003ccc:	f383 8810 	msr	PRIMASK, r3
 8003cd0:	46c0      	nop			; (mov r8, r8)
 8003cd2:	f3ef 8310 	mrs	r3, PRIMASK
 8003cd6:	64bb      	str	r3, [r7, #72]	; 0x48
 8003cd8:	6cbb      	ldr	r3, [r7, #72]	; 0x48
 8003cda:	673b      	str	r3, [r7, #112]	; 0x70
 8003cdc:	2301      	movs	r3, #1
 8003cde:	64fb      	str	r3, [r7, #76]	; 0x4c
 8003ce0:	6cfb      	ldr	r3, [r7, #76]	; 0x4c
 8003ce2:	f383 8810 	msr	PRIMASK, r3
 8003ce6:	46c0      	nop			; (mov r8, r8)
 8003ce8:	687b      	ldr	r3, [r7, #4]
 8003cea:	681b      	ldr	r3, [r3, #0]
 8003cec:	689a      	ldr	r2, [r3, #8]
 8003cee:	687b      	ldr	r3, [r7, #4]
 8003cf0:	681b      	ldr	r3, [r3, #0]
 8003cf2:	2140      	movs	r1, #64	; 0x40
 8003cf4:	438a      	bics	r2, r1
 8003cf6:	609a      	str	r2, [r3, #8]
 8003cf8:	6f3b      	ldr	r3, [r7, #112]	; 0x70
 8003cfa:	653b      	str	r3, [r7, #80]	; 0x50
 8003cfc:	6d3b      	ldr	r3, [r7, #80]	; 0x50
 8003cfe:	f383 8810 	msr	PRIMASK, r3
 8003d02:	46c0      	nop			; (mov r8, r8)
 8003d04:	687b      	ldr	r3, [r7, #4]
 8003d06:	2220      	movs	r2, #32
 8003d08:	67da      	str	r2, [r3, #124]	; 0x7c
 8003d0a:	687b      	ldr	r3, [r7, #4]
 8003d0c:	2200      	movs	r2, #0
 8003d0e:	661a      	str	r2, [r3, #96]	; 0x60
 8003d10:	f3ef 8310 	mrs	r3, PRIMASK
 8003d14:	657b      	str	r3, [r7, #84]	; 0x54
 8003d16:	6d7b      	ldr	r3, [r7, #84]	; 0x54
 8003d18:	66fb      	str	r3, [r7, #108]	; 0x6c
 8003d1a:	2301      	movs	r3, #1
 8003d1c:	65bb      	str	r3, [r7, #88]	; 0x58
 8003d1e:	6dbb      	ldr	r3, [r7, #88]	; 0x58
 8003d20:	f383 8810 	msr	PRIMASK, r3
 8003d24:	46c0      	nop			; (mov r8, r8)
 8003d26:	687b      	ldr	r3, [r7, #4]
 8003d28:	681b      	ldr	r3, [r3, #0]
 8003d2a:	681a      	ldr	r2, [r3, #0]
 8003d2c:	687b      	ldr	r3, [r7, #4]
 8003d2e:	681b      	ldr	r3, [r3, #0]
 8003d30:	2110      	movs	r1, #16
 8003d32:	438a      	bics	r2, r1
 8003d34:	601a      	str	r2, [r3, #0]
 8003d36:	6efb      	ldr	r3, [r7, #108]	; 0x6c
 8003d38:	65fb      	str	r3, [r7, #92]	; 0x5c
 8003d3a:	6dfb      	ldr	r3, [r7, #92]	; 0x5c
 8003d3c:	f383 8810 	msr	PRIMASK, r3
 8003d40:	46c0      	nop			; (mov r8, r8)
 8003d42:	687b      	ldr	r3, [r7, #4]
 8003d44:	6f1b      	ldr	r3, [r3, #112]	; 0x70
 8003d46:	0018      	movs	r0, r3
 8003d48:	f7fe fc86 	bl	8002658 <HAL_DMA_Abort>
 8003d4c:	687b      	ldr	r3, [r7, #4]
 8003d4e:	2258      	movs	r2, #88	; 0x58
 8003d50:	5a9a      	ldrh	r2, [r3, r2]
 8003d52:	687b      	ldr	r3, [r7, #4]
 8003d54:	215a      	movs	r1, #90	; 0x5a
 8003d56:	5a5b      	ldrh	r3, [r3, r1]
 8003d58:	b29b      	uxth	r3, r3
 8003d5a:	1ad3      	subs	r3, r2, r3
 8003d5c:	b29a      	uxth	r2, r3
 8003d5e:	687b      	ldr	r3, [r7, #4]
 8003d60:	0011      	movs	r1, r2
 8003d62:	0018      	movs	r0, r3
 8003d64:	f000 f8c4 	bl	8003ef0 <HAL_UARTEx_RxEventCallback>
 8003d68:	e0a6      	b.n	8003eb8 <HAL_UART_IRQHandler+0x568>
 8003d6a:	687b      	ldr	r3, [r7, #4]
 8003d6c:	2258      	movs	r2, #88	; 0x58
 8003d6e:	5a99      	ldrh	r1, [r3, r2]
 8003d70:	687b      	ldr	r3, [r7, #4]
 8003d72:	225a      	movs	r2, #90	; 0x5a
 8003d74:	5a9b      	ldrh	r3, [r3, r2]
 8003d76:	b29a      	uxth	r2, r3
 8003d78:	208e      	movs	r0, #142	; 0x8e
 8003d7a:	183b      	adds	r3, r7, r0
 8003d7c:	1a8a      	subs	r2, r1, r2
 8003d7e:	801a      	strh	r2, [r3, #0]
 8003d80:	687b      	ldr	r3, [r7, #4]
 8003d82:	225a      	movs	r2, #90	; 0x5a
 8003d84:	5a9b      	ldrh	r3, [r3, r2]
 8003d86:	b29b      	uxth	r3, r3
 8003d88:	2b00      	cmp	r3, #0
 8003d8a:	d100      	bne.n	8003d8e <HAL_UART_IRQHandler+0x43e>
 8003d8c:	e096      	b.n	8003ebc <HAL_UART_IRQHandler+0x56c>
 8003d8e:	183b      	adds	r3, r7, r0
 8003d90:	881b      	ldrh	r3, [r3, #0]
 8003d92:	2b00      	cmp	r3, #0
 8003d94:	d100      	bne.n	8003d98 <HAL_UART_IRQHandler+0x448>
 8003d96:	e091      	b.n	8003ebc <HAL_UART_IRQHandler+0x56c>
 8003d98:	f3ef 8310 	mrs	r3, PRIMASK
 8003d9c:	60fb      	str	r3, [r7, #12]
 8003d9e:	68fb      	ldr	r3, [r7, #12]
 8003da0:	2488      	movs	r4, #136	; 0x88
 8003da2:	193a      	adds	r2, r7, r4
 8003da4:	6013      	str	r3, [r2, #0]
 8003da6:	2301      	movs	r3, #1
 8003da8:	613b      	str	r3, [r7, #16]
 8003daa:	693b      	ldr	r3, [r7, #16]
 8003dac:	f383 8810 	msr	PRIMASK, r3
 8003db0:	46c0      	nop			; (mov r8, r8)
 8003db2:	687b      	ldr	r3, [r7, #4]
 8003db4:	681b      	ldr	r3, [r3, #0]
 8003db6:	681a      	ldr	r2, [r3, #0]
 8003db8:	687b      	ldr	r3, [r7, #4]
 8003dba:	681b      	ldr	r3, [r3, #0]
 8003dbc:	4943      	ldr	r1, [pc, #268]	; (8003ecc <HAL_UART_IRQHandler+0x57c>)
 8003dbe:	400a      	ands	r2, r1
 8003dc0:	601a      	str	r2, [r3, #0]
 8003dc2:	193b      	adds	r3, r7, r4
 8003dc4:	681b      	ldr	r3, [r3, #0]
 8003dc6:	617b      	str	r3, [r7, #20]
 8003dc8:	697b      	ldr	r3, [r7, #20]
 8003dca:	f383 8810 	msr	PRIMASK, r3
 8003dce:	46c0      	nop			; (mov r8, r8)
 8003dd0:	f3ef 8310 	mrs	r3, PRIMASK
 8003dd4:	61bb      	str	r3, [r7, #24]
 8003dd6:	69bb      	ldr	r3, [r7, #24]
 8003dd8:	2484      	movs	r4, #132	; 0x84
 8003dda:	193a      	adds	r2, r7, r4
 8003ddc:	6013      	str	r3, [r2, #0]
 8003dde:	2301      	movs	r3, #1
 8003de0:	61fb      	str	r3, [r7, #28]
 8003de2:	69fb      	ldr	r3, [r7, #28]
 8003de4:	f383 8810 	msr	PRIMASK, r3
 8003de8:	46c0      	nop			; (mov r8, r8)
 8003dea:	687b      	ldr	r3, [r7, #4]
 8003dec:	681b      	ldr	r3, [r3, #0]
 8003dee:	689a      	ldr	r2, [r3, #8]
 8003df0:	687b      	ldr	r3, [r7, #4]
 8003df2:	681b      	ldr	r3, [r3, #0]
 8003df4:	2101      	movs	r1, #1
 8003df6:	438a      	bics	r2, r1
 8003df8:	609a      	str	r2, [r3, #8]
 8003dfa:	193b      	adds	r3, r7, r4
 8003dfc:	681b      	ldr	r3, [r3, #0]
 8003dfe:	623b      	str	r3, [r7, #32]
 8003e00:	6a3b      	ldr	r3, [r7, #32]
 8003e02:	f383 8810 	msr	PRIMASK, r3
 8003e06:	46c0      	nop			; (mov r8, r8)
 8003e08:	687b      	ldr	r3, [r7, #4]
 8003e0a:	2220      	movs	r2, #32
 8003e0c:	67da      	str	r2, [r3, #124]	; 0x7c
 8003e0e:	687b      	ldr	r3, [r7, #4]
 8003e10:	2200      	movs	r2, #0
 8003e12:	661a      	str	r2, [r3, #96]	; 0x60
 8003e14:	687b      	ldr	r3, [r7, #4]
 8003e16:	2200      	movs	r2, #0
 8003e18:	665a      	str	r2, [r3, #100]	; 0x64
 8003e1a:	f3ef 8310 	mrs	r3, PRIMASK
 8003e1e:	627b      	str	r3, [r7, #36]	; 0x24
 8003e20:	6a7b      	ldr	r3, [r7, #36]	; 0x24
 8003e22:	2480      	movs	r4, #128	; 0x80
 8003e24:	193a      	adds	r2, r7, r4
 8003e26:	6013      	str	r3, [r2, #0]
 8003e28:	2301      	movs	r3, #1
 8003e2a:	62bb      	str	r3, [r7, #40]	; 0x28
 8003e2c:	6abb      	ldr	r3, [r7, #40]	; 0x28
 8003e2e:	f383 8810 	msr	PRIMASK, r3
 8003e32:	46c0      	nop			; (mov r8, r8)
 8003e34:	687b      	ldr	r3, [r7, #4]
 8003e36:	681b      	ldr	r3, [r3, #0]
 8003e38:	681a      	ldr	r2, [r3, #0]
 8003e3a:	687b      	ldr	r3, [r7, #4]
 8003e3c:	681b      	ldr	r3, [r3, #0]
 8003e3e:	2110      	movs	r1, #16
 8003e40:	438a      	bics	r2, r1
 8003e42:	601a      	str	r2, [r3, #0]
 8003e44:	193b      	adds	r3, r7, r4
 8003e46:	681b      	ldr	r3, [r3, #0]
 8003e48:	62fb      	str	r3, [r7, #44]	; 0x2c
 8003e4a:	6afb      	ldr	r3, [r7, #44]	; 0x2c
 8003e4c:	f383 8810 	msr	PRIMASK, r3
 8003e50:	46c0      	nop			; (mov r8, r8)
 8003e52:	183b      	adds	r3, r7, r0
 8003e54:	881a      	ldrh	r2, [r3, #0]
 8003e56:	687b      	ldr	r3, [r7, #4]
 8003e58:	0011      	movs	r1, r2
 8003e5a:	0018      	movs	r0, r3
 8003e5c:	f000 f848 	bl	8003ef0 <HAL_UARTEx_RxEventCallback>
 8003e60:	e02c      	b.n	8003ebc <HAL_UART_IRQHandler+0x56c>
 8003e62:	23a4      	movs	r3, #164	; 0xa4
 8003e64:	18fb      	adds	r3, r7, r3
 8003e66:	681b      	ldr	r3, [r3, #0]
 8003e68:	2280      	movs	r2, #128	; 0x80
 8003e6a:	4013      	ands	r3, r2
 8003e6c:	d00f      	beq.n	8003e8e <HAL_UART_IRQHandler+0x53e>
 8003e6e:	23a0      	movs	r3, #160	; 0xa0
 8003e70:	18fb      	adds	r3, r7, r3
 8003e72:	681b      	ldr	r3, [r3, #0]
 8003e74:	2280      	movs	r2, #128	; 0x80
 8003e76:	4013      	ands	r3, r2
 8003e78:	d009      	beq.n	8003e8e <HAL_UART_IRQHandler+0x53e>
 8003e7a:	687b      	ldr	r3, [r7, #4]
 8003e7c:	6e9b      	ldr	r3, [r3, #104]	; 0x68
 8003e7e:	2b00      	cmp	r3, #0
 8003e80:	d01e      	beq.n	8003ec0 <HAL_UART_IRQHandler+0x570>
 8003e82:	687b      	ldr	r3, [r7, #4]
 8003e84:	6e9b      	ldr	r3, [r3, #104]	; 0x68
 8003e86:	687a      	ldr	r2, [r7, #4]
 8003e88:	0010      	movs	r0, r2
 8003e8a:	4798      	blx	r3
 8003e8c:	e018      	b.n	8003ec0 <HAL_UART_IRQHandler+0x570>
 8003e8e:	23a4      	movs	r3, #164	; 0xa4
 8003e90:	18fb      	adds	r3, r7, r3
 8003e92:	681b      	ldr	r3, [r3, #0]
 8003e94:	2240      	movs	r2, #64	; 0x40
 8003e96:	4013      	ands	r3, r2
 8003e98:	d013      	beq.n	8003ec2 <HAL_UART_IRQHandler+0x572>
 8003e9a:	23a0      	movs	r3, #160	; 0xa0
 8003e9c:	18fb      	adds	r3, r7, r3
 8003e9e:	681b      	ldr	r3, [r3, #0]
 8003ea0:	2240      	movs	r2, #64	; 0x40
 8003ea2:	4013      	ands	r3, r2
 8003ea4:	d00d      	beq.n	8003ec2 <HAL_UART_IRQHandler+0x572>
 8003ea6:	687b      	ldr	r3, [r7, #4]
 8003ea8:	0018      	movs	r0, r3
 8003eaa:	f000 fc42 	bl	8004732 <UART_EndTransmit_IT>
 8003eae:	e008      	b.n	8003ec2 <HAL_UART_IRQHandler+0x572>
 8003eb0:	46c0      	nop			; (mov r8, r8)
 8003eb2:	e006      	b.n	8003ec2 <HAL_UART_IRQHandler+0x572>
 8003eb4:	46c0      	nop			; (mov r8, r8)
 8003eb6:	e004      	b.n	8003ec2 <HAL_UART_IRQHandler+0x572>
 8003eb8:	46c0      	nop			; (mov r8, r8)
 8003eba:	e002      	b.n	8003ec2 <HAL_UART_IRQHandler+0x572>
 8003ebc:	46c0      	nop			; (mov r8, r8)
 8003ebe:	e000      	b.n	8003ec2 <HAL_UART_IRQHandler+0x572>
 8003ec0:	46c0      	nop			; (mov r8, r8)
 8003ec2:	46bd      	mov	sp, r7
 8003ec4:	b02b      	add	sp, #172	; 0xac
 8003ec6:	bd90      	pop	{r4, r7, pc}
 8003ec8:	fffffeff 	.word	0xfffffeff
 8003ecc:	fffffedf 	.word	0xfffffedf

08003ed0 <HAL_UART_TxCpltCallback>:
 8003ed0:	b580      	push	{r7, lr}
 8003ed2:	b082      	sub	sp, #8
 8003ed4:	af00      	add	r7, sp, #0
 8003ed6:	6078      	str	r0, [r7, #4]
 8003ed8:	46c0      	nop			; (mov r8, r8)
 8003eda:	46bd      	mov	sp, r7
 8003edc:	b002      	add	sp, #8
 8003ede:	bd80      	pop	{r7, pc}

08003ee0 <HAL_UART_ErrorCallback>:
 8003ee0:	b580      	push	{r7, lr}
 8003ee2:	b082      	sub	sp, #8
 8003ee4:	af00      	add	r7, sp, #0
 8003ee6:	6078      	str	r0, [r7, #4]
 8003ee8:	46c0      	nop			; (mov r8, r8)
 8003eea:	46bd      	mov	sp, r7
 8003eec:	b002      	add	sp, #8
 8003eee:	bd80      	pop	{r7, pc}

08003ef0 <HAL_UARTEx_RxEventCallback>:
 8003ef0:	b580      	push	{r7, lr}
 8003ef2:	b082      	sub	sp, #8
 8003ef4:	af00      	add	r7, sp, #0
 8003ef6:	6078      	str	r0, [r7, #4]
 8003ef8:	000a      	movs	r2, r1
 8003efa:	1cbb      	adds	r3, r7, #2
 8003efc:	801a      	strh	r2, [r3, #0]
 8003efe:	46c0      	nop			; (mov r8, r8)
 8003f00:	46bd      	mov	sp, r7
 8003f02:	b002      	add	sp, #8
 8003f04:	bd80      	pop	{r7, pc}
	...

08003f08 <UART_SetConfig>:
 8003f08:	b580      	push	{r7, lr}
 8003f0a:	b088      	sub	sp, #32
 8003f0c:	af00      	add	r7, sp, #0
 8003f0e:	6078      	str	r0, [r7, #4]
 8003f10:	231e      	movs	r3, #30
 8003f12:	18fb      	adds	r3, r7, r3
 8003f14:	2200      	movs	r2, #0
 8003f16:	701a      	strb	r2, [r3, #0]
 8003f18:	687b      	ldr	r3, [r7, #4]
 8003f1a:	689a      	ldr	r2, [r3, #8]
 8003f1c:	687b      	ldr	r3, [r7, #4]
 8003f1e:	691b      	ldr	r3, [r3, #16]
 8003f20:	431a      	orrs	r2, r3
 8003f22:	687b      	ldr	r3, [r7, #4]
 8003f24:	695b      	ldr	r3, [r3, #20]
 8003f26:	431a      	orrs	r2, r3
 8003f28:	687b      	ldr	r3, [r7, #4]
 8003f2a:	69db      	ldr	r3, [r3, #28]
 8003f2c:	4313      	orrs	r3, r2
 8003f2e:	617b      	str	r3, [r7, #20]
 8003f30:	687b      	ldr	r3, [r7, #4]
 8003f32:	681b      	ldr	r3, [r3, #0]
 8003f34:	681b      	ldr	r3, [r3, #0]
 8003f36:	4a8d      	ldr	r2, [pc, #564]	; (800416c <UART_SetConfig+0x264>)
 8003f38:	4013      	ands	r3, r2
 8003f3a:	0019      	movs	r1, r3
 8003f3c:	687b      	ldr	r3, [r7, #4]
 8003f3e:	681b      	ldr	r3, [r3, #0]
 8003f40:	697a      	ldr	r2, [r7, #20]
 8003f42:	430a      	orrs	r2, r1
 8003f44:	601a      	str	r2, [r3, #0]
 8003f46:	687b      	ldr	r3, [r7, #4]
 8003f48:	681b      	ldr	r3, [r3, #0]
 8003f4a:	685b      	ldr	r3, [r3, #4]
 8003f4c:	4a88      	ldr	r2, [pc, #544]	; (8004170 <UART_SetConfig+0x268>)
 8003f4e:	4013      	ands	r3, r2
 8003f50:	0019      	movs	r1, r3
 8003f52:	687b      	ldr	r3, [r7, #4]
 8003f54:	68da      	ldr	r2, [r3, #12]
 8003f56:	687b      	ldr	r3, [r7, #4]
 8003f58:	681b      	ldr	r3, [r3, #0]
 8003f5a:	430a      	orrs	r2, r1
 8003f5c:	605a      	str	r2, [r3, #4]
 8003f5e:	687b      	ldr	r3, [r7, #4]
 8003f60:	699b      	ldr	r3, [r3, #24]
 8003f62:	617b      	str	r3, [r7, #20]
 8003f64:	687b      	ldr	r3, [r7, #4]
 8003f66:	6a1b      	ldr	r3, [r3, #32]
 8003f68:	697a      	ldr	r2, [r7, #20]
 8003f6a:	4313      	orrs	r3, r2
 8003f6c:	617b      	str	r3, [r7, #20]
 8003f6e:	687b      	ldr	r3, [r7, #4]
 8003f70:	681b      	ldr	r3, [r3, #0]
 8003f72:	689b      	ldr	r3, [r3, #8]
 8003f74:	4a7f      	ldr	r2, [pc, #508]	; (8004174 <UART_SetConfig+0x26c>)
 8003f76:	4013      	ands	r3, r2
 8003f78:	0019      	movs	r1, r3
 8003f7a:	687b      	ldr	r3, [r7, #4]
 8003f7c:	681b      	ldr	r3, [r3, #0]
 8003f7e:	697a      	ldr	r2, [r7, #20]
 8003f80:	430a      	orrs	r2, r1
 8003f82:	609a      	str	r2, [r3, #8]
 8003f84:	687b      	ldr	r3, [r7, #4]
 8003f86:	681b      	ldr	r3, [r3, #0]
 8003f88:	4a7b      	ldr	r2, [pc, #492]	; (8004178 <UART_SetConfig+0x270>)
 8003f8a:	4293      	cmp	r3, r2
 8003f8c:	d127      	bne.n	8003fde <UART_SetConfig+0xd6>
 8003f8e:	4b7b      	ldr	r3, [pc, #492]	; (800417c <UART_SetConfig+0x274>)
 8003f90:	6b1b      	ldr	r3, [r3, #48]	; 0x30
 8003f92:	2203      	movs	r2, #3
 8003f94:	4013      	ands	r3, r2
 8003f96:	2b03      	cmp	r3, #3
 8003f98:	d00d      	beq.n	8003fb6 <UART_SetConfig+0xae>
 8003f9a:	d81b      	bhi.n	8003fd4 <UART_SetConfig+0xcc>
 8003f9c:	2b02      	cmp	r3, #2
 8003f9e:	d014      	beq.n	8003fca <UART_SetConfig+0xc2>
 8003fa0:	d818      	bhi.n	8003fd4 <UART_SetConfig+0xcc>
 8003fa2:	2b00      	cmp	r3, #0
 8003fa4:	d002      	beq.n	8003fac <UART_SetConfig+0xa4>
 8003fa6:	2b01      	cmp	r3, #1
 8003fa8:	d00a      	beq.n	8003fc0 <UART_SetConfig+0xb8>
 8003faa:	e013      	b.n	8003fd4 <UART_SetConfig+0xcc>
 8003fac:	231f      	movs	r3, #31
 8003fae:	18fb      	adds	r3, r7, r3
 8003fb0:	2200      	movs	r2, #0
 8003fb2:	701a      	strb	r2, [r3, #0]
 8003fb4:	e021      	b.n	8003ffa <UART_SetConfig+0xf2>
 8003fb6:	231f      	movs	r3, #31
 8003fb8:	18fb      	adds	r3, r7, r3
 8003fba:	2202      	movs	r2, #2
 8003fbc:	701a      	strb	r2, [r3, #0]
 8003fbe:	e01c      	b.n	8003ffa <UART_SetConfig+0xf2>
 8003fc0:	231f      	movs	r3, #31
 8003fc2:	18fb      	adds	r3, r7, r3
 8003fc4:	2204      	movs	r2, #4
 8003fc6:	701a      	strb	r2, [r3, #0]
 8003fc8:	e017      	b.n	8003ffa <UART_SetConfig+0xf2>
 8003fca:	231f      	movs	r3, #31
 8003fcc:	18fb      	adds	r3, r7, r3
 8003fce:	2208      	movs	r2, #8
 8003fd0:	701a      	strb	r2, [r3, #0]
 8003fd2:	e012      	b.n	8003ffa <UART_SetConfig+0xf2>
 8003fd4:	231f      	movs	r3, #31
 8003fd6:	18fb      	adds	r3, r7, r3
 8003fd8:	2210      	movs	r2, #16
 8003fda:	701a      	strb	r2, [r3, #0]
 8003fdc:	e00d      	b.n	8003ffa <UART_SetConfig+0xf2>
 8003fde:	687b      	ldr	r3, [r7, #4]
 8003fe0:	681b      	ldr	r3, [r3, #0]
 8003fe2:	4a67      	ldr	r2, [pc, #412]	; (8004180 <UART_SetConfig+0x278>)
 8003fe4:	4293      	cmp	r3, r2
 8003fe6:	d104      	bne.n	8003ff2 <UART_SetConfig+0xea>
 8003fe8:	231f      	movs	r3, #31
 8003fea:	18fb      	adds	r3, r7, r3
 8003fec:	2200      	movs	r2, #0
 8003fee:	701a      	strb	r2, [r3, #0]
 8003ff0:	e003      	b.n	8003ffa <UART_SetConfig+0xf2>
 8003ff2:	231f      	movs	r3, #31
 8003ff4:	18fb      	adds	r3, r7, r3
 8003ff6:	2210      	movs	r2, #16
 8003ff8:	701a      	strb	r2, [r3, #0]
 8003ffa:	687b      	ldr	r3, [r7, #4]
 8003ffc:	69da      	ldr	r2, [r3, #28]
 8003ffe:	2380      	movs	r3, #128	; 0x80
 8004000:	021b      	lsls	r3, r3, #8
 8004002:	429a      	cmp	r2, r3
 8004004:	d15d      	bne.n	80040c2 <UART_SetConfig+0x1ba>
 8004006:	231f      	movs	r3, #31
 8004008:	18fb      	adds	r3, r7, r3
 800400a:	781b      	ldrb	r3, [r3, #0]
 800400c:	2b08      	cmp	r3, #8
 800400e:	d015      	beq.n	800403c <UART_SetConfig+0x134>
 8004010:	dc18      	bgt.n	8004044 <UART_SetConfig+0x13c>
 8004012:	2b04      	cmp	r3, #4
 8004014:	d00d      	beq.n	8004032 <UART_SetConfig+0x12a>
 8004016:	dc15      	bgt.n	8004044 <UART_SetConfig+0x13c>
 8004018:	2b00      	cmp	r3, #0
 800401a:	d002      	beq.n	8004022 <UART_SetConfig+0x11a>
 800401c:	2b02      	cmp	r3, #2
 800401e:	d005      	beq.n	800402c <UART_SetConfig+0x124>
 8004020:	e010      	b.n	8004044 <UART_SetConfig+0x13c>
 8004022:	f7ff fa53 	bl	80034cc <HAL_RCC_GetPCLK1Freq>
 8004026:	0003      	movs	r3, r0
 8004028:	61bb      	str	r3, [r7, #24]
 800402a:	e012      	b.n	8004052 <UART_SetConfig+0x14a>
 800402c:	4b55      	ldr	r3, [pc, #340]	; (8004184 <UART_SetConfig+0x27c>)
 800402e:	61bb      	str	r3, [r7, #24]
 8004030:	e00f      	b.n	8004052 <UART_SetConfig+0x14a>
 8004032:	f7ff f9dd 	bl	80033f0 <HAL_RCC_GetSysClockFreq>
 8004036:	0003      	movs	r3, r0
 8004038:	61bb      	str	r3, [r7, #24]
 800403a:	e00a      	b.n	8004052 <UART_SetConfig+0x14a>
 800403c:	2380      	movs	r3, #128	; 0x80
 800403e:	021b      	lsls	r3, r3, #8
 8004040:	61bb      	str	r3, [r7, #24]
 8004042:	e006      	b.n	8004052 <UART_SetConfig+0x14a>
 8004044:	2300      	movs	r3, #0
 8004046:	61bb      	str	r3, [r7, #24]
 8004048:	231e      	movs	r3, #30
 800404a:	18fb      	adds	r3, r7, r3
 800404c:	2201      	movs	r2, #1
 800404e:	701a      	strb	r2, [r3, #0]
 8004050:	46c0      	nop			; (mov r8, r8)
 8004052:	69bb      	ldr	r3, [r7, #24]
 8004054:	2b00      	cmp	r3, #0
 8004056:	d100      	bne.n	800405a <UART_SetConfig+0x152>
 8004058:	e07b      	b.n	8004152 <UART_SetConfig+0x24a>
 800405a:	69bb      	ldr	r3, [r7, #24]
 800405c:	005a      	lsls	r2, r3, #1
 800405e:	687b      	ldr	r3, [r7, #4]
 8004060:	685b      	ldr	r3, [r3, #4]
 8004062:	085b      	lsrs	r3, r3, #1
 8004064:	18d2      	adds	r2, r2, r3
 8004066:	687b      	ldr	r3, [r7, #4]
 8004068:	685b      	ldr	r3, [r3, #4]
 800406a:	0019      	movs	r1, r3
 800406c:	0010      	movs	r0, r2
 800406e:	f7fc f853 	bl	8000118 <__udivsi3>
 8004072:	0003      	movs	r3, r0
 8004074:	b29b      	uxth	r3, r3
 8004076:	613b      	str	r3, [r7, #16]
 8004078:	693b      	ldr	r3, [r7, #16]
 800407a:	2b0f      	cmp	r3, #15
 800407c:	d91c      	bls.n	80040b8 <UART_SetConfig+0x1b0>
 800407e:	693a      	ldr	r2, [r7, #16]
 8004080:	2380      	movs	r3, #128	; 0x80
 8004082:	025b      	lsls	r3, r3, #9
 8004084:	429a      	cmp	r2, r3
 8004086:	d217      	bcs.n	80040b8 <UART_SetConfig+0x1b0>
 8004088:	693b      	ldr	r3, [r7, #16]
 800408a:	b29a      	uxth	r2, r3
 800408c:	200e      	movs	r0, #14
 800408e:	183b      	adds	r3, r7, r0
 8004090:	210f      	movs	r1, #15
 8004092:	438a      	bics	r2, r1
 8004094:	801a      	strh	r2, [r3, #0]
 8004096:	693b      	ldr	r3, [r7, #16]
 8004098:	085b      	lsrs	r3, r3, #1
 800409a:	b29b      	uxth	r3, r3
 800409c:	2207      	movs	r2, #7
 800409e:	4013      	ands	r3, r2
 80040a0:	b299      	uxth	r1, r3
 80040a2:	183b      	adds	r3, r7, r0
 80040a4:	183a      	adds	r2, r7, r0
 80040a6:	8812      	ldrh	r2, [r2, #0]
 80040a8:	430a      	orrs	r2, r1
 80040aa:	801a      	strh	r2, [r3, #0]
 80040ac:	687b      	ldr	r3, [r7, #4]
 80040ae:	681b      	ldr	r3, [r3, #0]
 80040b0:	183a      	adds	r2, r7, r0
 80040b2:	8812      	ldrh	r2, [r2, #0]
 80040b4:	60da      	str	r2, [r3, #12]
 80040b6:	e04c      	b.n	8004152 <UART_SetConfig+0x24a>
 80040b8:	231e      	movs	r3, #30
 80040ba:	18fb      	adds	r3, r7, r3
 80040bc:	2201      	movs	r2, #1
 80040be:	701a      	strb	r2, [r3, #0]
 80040c0:	e047      	b.n	8004152 <UART_SetConfig+0x24a>
 80040c2:	231f      	movs	r3, #31
 80040c4:	18fb      	adds	r3, r7, r3
 80040c6:	781b      	ldrb	r3, [r3, #0]
 80040c8:	2b08      	cmp	r3, #8
 80040ca:	d015      	beq.n	80040f8 <UART_SetConfig+0x1f0>
 80040cc:	dc18      	bgt.n	8004100 <UART_SetConfig+0x1f8>
 80040ce:	2b04      	cmp	r3, #4
 80040d0:	d00d      	beq.n	80040ee <UART_SetConfig+0x1e6>
 80040d2:	dc15      	bgt.n	8004100 <UART_SetConfig+0x1f8>
 80040d4:	2b00      	cmp	r3, #0
 80040d6:	d002      	beq.n	80040de <UART_SetConfig+0x1d6>
 80040d8:	2b02      	cmp	r3, #2
 80040da:	d005      	beq.n	80040e8 <UART_SetConfig+0x1e0>
 80040dc:	e010      	b.n	8004100 <UART_SetConfig+0x1f8>
 80040de:	f7ff f9f5 	bl	80034cc <HAL_RCC_GetPCLK1Freq>
 80040e2:	0003      	movs	r3, r0
 80040e4:	61bb      	str	r3, [r7, #24]
 80040e6:	e012      	b.n	800410e <UART_SetConfig+0x206>
 80040e8:	4b26      	ldr	r3, [pc, #152]	; (8004184 <UART_SetConfig+0x27c>)
 80040ea:	61bb      	str	r3, [r7, #24]
 80040ec:	e00f      	b.n	800410e <UART_SetConfig+0x206>
 80040ee:	f7ff f97f 	bl	80033f0 <HAL_RCC_GetSysClockFreq>
 80040f2:	0003      	movs	r3, r0
 80040f4:	61bb      	str	r3, [r7, #24]
 80040f6:	e00a      	b.n	800410e <UART_SetConfig+0x206>
 80040f8:	2380      	movs	r3, #128	; 0x80
 80040fa:	021b      	lsls	r3, r3, #8
 80040fc:	61bb      	str	r3, [r7, #24]
 80040fe:	e006      	b.n	800410e <UART_SetConfig+0x206>
 8004100:	2300      	movs	r3, #0
 8004102:	61bb      	str	r3, [r7, #24]
 8004104:	231e      	movs	r3, #30
 8004106:	18fb      	adds	r3, r7, r3
 8004108:	2201      	movs	r2, #1
 800410a:	701a      	strb	r2, [r3, #0]
 800410c:	46c0      	nop			; (mov r8, r8)
 800410e:	69bb      	ldr	r3, [r7, #24]
 8004110:	2b00      	cmp	r3, #0
 8004112:	d01e      	beq.n	8004152 <UART_SetConfig+0x24a>
 8004114:	687b      	ldr	r3, [r7, #4]
 8004116:	685b      	ldr	r3, [r3, #4]
 8004118:	085a      	lsrs	r2, r3, #1
 800411a:	69bb      	ldr	r3, [r7, #24]
 800411c:	18d2      	adds	r2, r2, r3
 800411e:	687b      	ldr	r3, [r7, #4]
 8004120:	685b      	ldr	r3, [r3, #4]
 8004122:	0019      	movs	r1, r3
 8004124:	0010      	movs	r0, r2
 8004126:	f7fb fff7 	bl	8000118 <__udivsi3>
 800412a:	0003      	movs	r3, r0
 800412c:	b29b      	uxth	r3, r3
 800412e:	613b      	str	r3, [r7, #16]
 8004130:	693b      	ldr	r3, [r7, #16]
 8004132:	2b0f      	cmp	r3, #15
 8004134:	d909      	bls.n	800414a <UART_SetConfig+0x242>
 8004136:	693a      	ldr	r2, [r7, #16]
 8004138:	2380      	movs	r3, #128	; 0x80
 800413a:	025b      	lsls	r3, r3, #9
 800413c:	429a      	cmp	r2, r3
 800413e:	d204      	bcs.n	800414a <UART_SetConfig+0x242>
 8004140:	687b      	ldr	r3, [r7, #4]
 8004142:	681b      	ldr	r3, [r3, #0]
 8004144:	693a      	ldr	r2, [r7, #16]
 8004146:	60da      	str	r2, [r3, #12]
 8004148:	e003      	b.n	8004152 <UART_SetConfig+0x24a>
 800414a:	231e      	movs	r3, #30
 800414c:	18fb      	adds	r3, r7, r3
 800414e:	2201      	movs	r2, #1
 8004150:	701a      	strb	r2, [r3, #0]
 8004152:	687b      	ldr	r3, [r7, #4]
 8004154:	2200      	movs	r2, #0
 8004156:	665a      	str	r2, [r3, #100]	; 0x64
 8004158:	687b      	ldr	r3, [r7, #4]
 800415a:	2200      	movs	r2, #0
 800415c:	669a      	str	r2, [r3, #104]	; 0x68
 800415e:	231e      	movs	r3, #30
 8004160:	18fb      	adds	r3, r7, r3
 8004162:	781b      	ldrb	r3, [r3, #0]
 8004164:	0018      	movs	r0, r3
 8004166:	46bd      	mov	sp, r7
 8004168:	b008      	add	sp, #32
 800416a:	bd80      	pop	{r7, pc}
 800416c:	ffff69f3 	.word	0xffff69f3
 8004170:	ffffcfff 	.word	0xffffcfff
 8004174:	fffff4ff 	.word	0xfffff4ff
 8004178:	40013800 	.word	0x40013800
 800417c:	40021000 	.word	0x40021000
 8004180:	40004400 	.word	0x40004400
 8004184:	007a1200 	.word	0x007a1200

08004188 <UART_AdvFeatureConfig>:
 8004188:	b580      	push	{r7, lr}
 800418a:	b082      	sub	sp, #8
 800418c:	af00      	add	r7, sp, #0
 800418e:	6078      	str	r0, [r7, #4]
 8004190:	687b      	ldr	r3, [r7, #4]
 8004192:	6a5b      	ldr	r3, [r3, #36]	; 0x24
 8004194:	2201      	movs	r2, #1
 8004196:	4013      	ands	r3, r2
 8004198:	d00b      	beq.n	80041b2 <UART_AdvFeatureConfig+0x2a>
 800419a:	687b      	ldr	r3, [r7, #4]
 800419c:	681b      	ldr	r3, [r3, #0]
 800419e:	685b      	ldr	r3, [r3, #4]
 80041a0:	4a4a      	ldr	r2, [pc, #296]	; (80042cc <UART_AdvFeatureConfig+0x144>)
 80041a2:	4013      	ands	r3, r2
 80041a4:	0019      	movs	r1, r3
 80041a6:	687b      	ldr	r3, [r7, #4]
 80041a8:	6a9a      	ldr	r2, [r3, #40]	; 0x28
 80041aa:	687b      	ldr	r3, [r7, #4]
 80041ac:	681b      	ldr	r3, [r3, #0]
 80041ae:	430a      	orrs	r2, r1
 80041b0:	605a      	str	r2, [r3, #4]
 80041b2:	687b      	ldr	r3, [r7, #4]
 80041b4:	6a5b      	ldr	r3, [r3, #36]	; 0x24
 80041b6:	2202      	movs	r2, #2
 80041b8:	4013      	ands	r3, r2
 80041ba:	d00b      	beq.n	80041d4 <UART_AdvFeatureConfig+0x4c>
 80041bc:	687b      	ldr	r3, [r7, #4]
 80041be:	681b      	ldr	r3, [r3, #0]
 80041c0:	685b      	ldr	r3, [r3, #4]
 80041c2:	4a43      	ldr	r2, [pc, #268]	; (80042d0 <UART_AdvFeatureConfig+0x148>)
 80041c4:	4013      	ands	r3, r2
 80041c6:	0019      	movs	r1, r3
 80041c8:	687b      	ldr	r3, [r7, #4]
 80041ca:	6ada      	ldr	r2, [r3, #44]	; 0x2c
 80041cc:	687b      	ldr	r3, [r7, #4]
 80041ce:	681b      	ldr	r3, [r3, #0]
 80041d0:	430a      	orrs	r2, r1
 80041d2:	605a      	str	r2, [r3, #4]
 80041d4:	687b      	ldr	r3, [r7, #4]
 80041d6:	6a5b      	ldr	r3, [r3, #36]	; 0x24
 80041d8:	2204      	movs	r2, #4
 80041da:	4013      	ands	r3, r2
 80041dc:	d00b      	beq.n	80041f6 <UART_AdvFeatureConfig+0x6e>
 80041de:	687b      	ldr	r3, [r7, #4]
 80041e0:	681b      	ldr	r3, [r3, #0]
 80041e2:	685b      	ldr	r3, [r3, #4]
 80041e4:	4a3b      	ldr	r2, [pc, #236]	; (80042d4 <UART_AdvFeatureConfig+0x14c>)
 80041e6:	4013      	ands	r3, r2
 80041e8:	0019      	movs	r1, r3
 80041ea:	687b      	ldr	r3, [r7, #4]
 80041ec:	6b1a      	ldr	r2, [r3, #48]	; 0x30
 80041ee:	687b      	ldr	r3, [r7, #4]
 80041f0:	681b      	ldr	r3, [r3, #0]
 80041f2:	430a      	orrs	r2, r1
 80041f4:	605a      	str	r2, [r3, #4]
 80041f6:	687b      	ldr	r3, [r7, #4]
 80041f8:	6a5b      	ldr	r3, [r3, #36]	; 0x24
 80041fa:	2208      	movs	r2, #8
 80041fc:	4013      	ands	r3, r2
 80041fe:	d00b      	beq.n	8004218 <UART_AdvFeatureConfig+0x90>
 8004200:	687b      	ldr	r3, [r7, #4]
 8004202:	681b      	ldr	r3, [r3, #0]
 8004204:	685b      	ldr	r3, [r3, #4]
 8004206:	4a34      	ldr	r2, [pc, #208]	; (80042d8 <UART_AdvFeatureConfig+0x150>)
 8004208:	4013      	ands	r3, r2
 800420a:	0019      	movs	r1, r3
 800420c:	687b      	ldr	r3, [r7, #4]
 800420e:	6b5a      	ldr	r2, [r3, #52]	; 0x34
 8004210:	687b      	ldr	r3, [r7, #4]
 8004212:	681b      	ldr	r3, [r3, #0]
 8004214:	430a      	orrs	r2, r1
 8004216:	605a      	str	r2, [r3, #4]
 8004218:	687b      	ldr	r3, [r7, #4]
 800421a:	6a5b      	ldr	r3, [r3, #36]	; 0x24
 800421c:	2210      	movs	r2, #16
 800421e:	4013      	ands	r3, r2
 8004220:	d00b      	beq.n	800423a <UART_AdvFeatureConfig+0xb2>
 8004222:	687b      	ldr	r3, [r7, #4]
 8004224:	681b      	ldr	r3, [r3, #0]
 8004226:	689b      	ldr	r3, [r3, #8]
 8004228:	4a2c      	ldr	r2, [pc, #176]	; (80042dc <UART_AdvFeatureConfig+0x154>)
 800422a:	4013      	ands	r3, r2
 800422c:	0019      	movs	r1, r3
 800422e:	687b      	ldr	r3, [r7, #4]
 8004230:	6b9a      	ldr	r2, [r3, #56]	; 0x38
 8004232:	687b      	ldr	r3, [r7, #4]
 8004234:	681b      	ldr	r3, [r3, #0]
 8004236:	430a      	orrs	r2, r1
 8004238:	609a      	str	r2, [r3, #8]
 800423a:	687b      	ldr	r3, [r7, #4]
 800423c:	6a5b      	ldr	r3, [r3, #36]	; 0x24
 800423e:	2220      	movs	r2, #32
 8004240:	4013      	ands	r3, r2
 8004242:	d00b      	beq.n	800425c <UART_AdvFeatureConfig+0xd4>
 8004244:	687b      	ldr	r3, [r7, #4]
 8004246:	681b      	ldr	r3, [r3, #0]
 8004248:	689b      	ldr	r3, [r3, #8]
 800424a:	4a25      	ldr	r2, [pc, #148]	; (80042e0 <UART_AdvFeatureConfig+0x158>)
 800424c:	4013      	ands	r3, r2
 800424e:	0019      	movs	r1, r3
 8004250:	687b      	ldr	r3, [r7, #4]
 8004252:	6bda      	ldr	r2, [r3, #60]	; 0x3c
 8004254:	687b      	ldr	r3, [r7, #4]
 8004256:	681b      	ldr	r3, [r3, #0]
 8004258:	430a      	orrs	r2, r1
 800425a:	609a      	str	r2, [r3, #8]
 800425c:	687b      	ldr	r3, [r7, #4]
 800425e:	6a5b      	ldr	r3, [r3, #36]	; 0x24
 8004260:	2240      	movs	r2, #64	; 0x40
 8004262:	4013      	ands	r3, r2
 8004264:	d01d      	beq.n	80042a2 <UART_AdvFeatureConfig+0x11a>
 8004266:	687b      	ldr	r3, [r7, #4]
 8004268:	681b      	ldr	r3, [r3, #0]
 800426a:	685b      	ldr	r3, [r3, #4]
 800426c:	4a1d      	ldr	r2, [pc, #116]	; (80042e4 <UART_AdvFeatureConfig+0x15c>)
 800426e:	4013      	ands	r3, r2
 8004270:	0019      	movs	r1, r3
 8004272:	687b      	ldr	r3, [r7, #4]
 8004274:	6c1a      	ldr	r2, [r3, #64]	; 0x40
 8004276:	687b      	ldr	r3, [r7, #4]
 8004278:	681b      	ldr	r3, [r3, #0]
 800427a:	430a      	orrs	r2, r1
 800427c:	605a      	str	r2, [r3, #4]
 800427e:	687b      	ldr	r3, [r7, #4]
 8004280:	6c1a      	ldr	r2, [r3, #64]	; 0x40
 8004282:	2380      	movs	r3, #128	; 0x80
 8004284:	035b      	lsls	r3, r3, #13
 8004286:	429a      	cmp	r2, r3
 8004288:	d10b      	bne.n	80042a2 <UART_AdvFeatureConfig+0x11a>
 800428a:	687b      	ldr	r3, [r7, #4]
 800428c:	681b      	ldr	r3, [r3, #0]
 800428e:	685b      	ldr	r3, [r3, #4]
 8004290:	4a15      	ldr	r2, [pc, #84]	; (80042e8 <UART_AdvFeatureConfig+0x160>)
 8004292:	4013      	ands	r3, r2
 8004294:	0019      	movs	r1, r3
 8004296:	687b      	ldr	r3, [r7, #4]
 8004298:	6c5a      	ldr	r2, [r3, #68]	; 0x44
 800429a:	687b      	ldr	r3, [r7, #4]
 800429c:	681b      	ldr	r3, [r3, #0]
 800429e:	430a      	orrs	r2, r1
 80042a0:	605a      	str	r2, [r3, #4]
 80042a2:	687b      	ldr	r3, [r7, #4]
 80042a4:	6a5b      	ldr	r3, [r3, #36]	; 0x24
 80042a6:	2280      	movs	r2, #128	; 0x80
 80042a8:	4013      	ands	r3, r2
 80042aa:	d00b      	beq.n	80042c4 <UART_AdvFeatureConfig+0x13c>
 80042ac:	687b      	ldr	r3, [r7, #4]
 80042ae:	681b      	ldr	r3, [r3, #0]
 80042b0:	685b      	ldr	r3, [r3, #4]
 80042b2:	4a0e      	ldr	r2, [pc, #56]	; (80042ec <UART_AdvFeatureConfig+0x164>)
 80042b4:	4013      	ands	r3, r2
 80042b6:	0019      	movs	r1, r3
 80042b8:	687b      	ldr	r3, [r7, #4]
 80042ba:	6c9a      	ldr	r2, [r3, #72]	; 0x48
 80042bc:	687b      	ldr	r3, [r7, #4]
 80042be:	681b      	ldr	r3, [r3, #0]
 80042c0:	430a      	orrs	r2, r1
 80042c2:	605a      	str	r2, [r3, #4]
 80042c4:	46c0      	nop			; (mov r8, r8)
 80042c6:	46bd      	mov	sp, r7
 80042c8:	b002      	add	sp, #8
 80042ca:	bd80      	pop	{r7, pc}
 80042cc:	fffdffff 	.word	0xfffdffff
 80042d0:	fffeffff 	.word	0xfffeffff
 80042d4:	fffbffff 	.word	0xfffbffff
 80042d8:	ffff7fff 	.word	0xffff7fff
 80042dc:	ffffefff 	.word	0xffffefff
 80042e0:	ffffdfff 	.word	0xffffdfff
 80042e4:	ffefffff 	.word	0xffefffff
 80042e8:	ff9fffff 	.word	0xff9fffff
 80042ec:	fff7ffff 	.word	0xfff7ffff

080042f0 <UART_CheckIdleState>:
 80042f0:	b580      	push	{r7, lr}
 80042f2:	b086      	sub	sp, #24
 80042f4:	af02      	add	r7, sp, #8
 80042f6:	6078      	str	r0, [r7, #4]
 80042f8:	687b      	ldr	r3, [r7, #4]
 80042fa:	2280      	movs	r2, #128	; 0x80
 80042fc:	2100      	movs	r1, #0
 80042fe:	5099      	str	r1, [r3, r2]
 8004300:	f7fe f856 	bl	80023b0 <HAL_GetTick>
 8004304:	0003      	movs	r3, r0
 8004306:	60fb      	str	r3, [r7, #12]
 8004308:	687b      	ldr	r3, [r7, #4]
 800430a:	681b      	ldr	r3, [r3, #0]
 800430c:	681b      	ldr	r3, [r3, #0]
 800430e:	2208      	movs	r2, #8
 8004310:	4013      	ands	r3, r2
 8004312:	2b08      	cmp	r3, #8
 8004314:	d10c      	bne.n	8004330 <UART_CheckIdleState+0x40>
 8004316:	68fb      	ldr	r3, [r7, #12]
 8004318:	2280      	movs	r2, #128	; 0x80
 800431a:	0391      	lsls	r1, r2, #14
 800431c:	6878      	ldr	r0, [r7, #4]
 800431e:	4a17      	ldr	r2, [pc, #92]	; (800437c <UART_CheckIdleState+0x8c>)
 8004320:	9200      	str	r2, [sp, #0]
 8004322:	2200      	movs	r2, #0
 8004324:	f000 f82c 	bl	8004380 <UART_WaitOnFlagUntilTimeout>
 8004328:	1e03      	subs	r3, r0, #0
 800432a:	d001      	beq.n	8004330 <UART_CheckIdleState+0x40>
 800432c:	2303      	movs	r3, #3
 800432e:	e021      	b.n	8004374 <UART_CheckIdleState+0x84>
 8004330:	687b      	ldr	r3, [r7, #4]
 8004332:	681b      	ldr	r3, [r3, #0]
 8004334:	681b      	ldr	r3, [r3, #0]
 8004336:	2204      	movs	r2, #4
 8004338:	4013      	ands	r3, r2
 800433a:	2b04      	cmp	r3, #4
 800433c:	d10c      	bne.n	8004358 <UART_CheckIdleState+0x68>
 800433e:	68fb      	ldr	r3, [r7, #12]
 8004340:	2280      	movs	r2, #128	; 0x80
 8004342:	03d1      	lsls	r1, r2, #15
 8004344:	6878      	ldr	r0, [r7, #4]
 8004346:	4a0d      	ldr	r2, [pc, #52]	; (800437c <UART_CheckIdleState+0x8c>)
 8004348:	9200      	str	r2, [sp, #0]
 800434a:	2200      	movs	r2, #0
 800434c:	f000 f818 	bl	8004380 <UART_WaitOnFlagUntilTimeout>
 8004350:	1e03      	subs	r3, r0, #0
 8004352:	d001      	beq.n	8004358 <UART_CheckIdleState+0x68>
 8004354:	2303      	movs	r3, #3
 8004356:	e00d      	b.n	8004374 <UART_CheckIdleState+0x84>
 8004358:	687b      	ldr	r3, [r7, #4]
 800435a:	2220      	movs	r2, #32
 800435c:	679a      	str	r2, [r3, #120]	; 0x78
 800435e:	687b      	ldr	r3, [r7, #4]
 8004360:	2220      	movs	r2, #32
 8004362:	67da      	str	r2, [r3, #124]	; 0x7c
 8004364:	687b      	ldr	r3, [r7, #4]
 8004366:	2200      	movs	r2, #0
 8004368:	661a      	str	r2, [r3, #96]	; 0x60
 800436a:	687b      	ldr	r3, [r7, #4]
 800436c:	2274      	movs	r2, #116	; 0x74
 800436e:	2100      	movs	r1, #0
 8004370:	5499      	strb	r1, [r3, r2]
 8004372:	2300      	movs	r3, #0
 8004374:	0018      	movs	r0, r3
 8004376:	46bd      	mov	sp, r7
 8004378:	b004      	add	sp, #16
 800437a:	bd80      	pop	{r7, pc}
 800437c:	01ffffff 	.word	0x01ffffff

08004380 <UART_WaitOnFlagUntilTimeout>:
 8004380:	b580      	push	{r7, lr}
 8004382:	b094      	sub	sp, #80	; 0x50
 8004384:	af00      	add	r7, sp, #0
 8004386:	60f8      	str	r0, [r7, #12]
 8004388:	60b9      	str	r1, [r7, #8]
 800438a:	603b      	str	r3, [r7, #0]
 800438c:	1dfb      	adds	r3, r7, #7
 800438e:	701a      	strb	r2, [r3, #0]
 8004390:	e0a3      	b.n	80044da <UART_WaitOnFlagUntilTimeout+0x15a>
 8004392:	6dbb      	ldr	r3, [r7, #88]	; 0x58
 8004394:	3301      	adds	r3, #1
 8004396:	d100      	bne.n	800439a <UART_WaitOnFlagUntilTimeout+0x1a>
 8004398:	e09f      	b.n	80044da <UART_WaitOnFlagUntilTimeout+0x15a>
 800439a:	f7fe f809 	bl	80023b0 <HAL_GetTick>
 800439e:	0002      	movs	r2, r0
 80043a0:	683b      	ldr	r3, [r7, #0]
 80043a2:	1ad3      	subs	r3, r2, r3
 80043a4:	6dba      	ldr	r2, [r7, #88]	; 0x58
 80043a6:	429a      	cmp	r2, r3
 80043a8:	d302      	bcc.n	80043b0 <UART_WaitOnFlagUntilTimeout+0x30>
 80043aa:	6dbb      	ldr	r3, [r7, #88]	; 0x58
 80043ac:	2b00      	cmp	r3, #0
 80043ae:	d13d      	bne.n	800442c <UART_WaitOnFlagUntilTimeout+0xac>
 80043b0:	f3ef 8310 	mrs	r3, PRIMASK
 80043b4:	62bb      	str	r3, [r7, #40]	; 0x28
 80043b6:	6abb      	ldr	r3, [r7, #40]	; 0x28
 80043b8:	647b      	str	r3, [r7, #68]	; 0x44
 80043ba:	2301      	movs	r3, #1
 80043bc:	62fb      	str	r3, [r7, #44]	; 0x2c
 80043be:	6afb      	ldr	r3, [r7, #44]	; 0x2c
 80043c0:	f383 8810 	msr	PRIMASK, r3
 80043c4:	46c0      	nop			; (mov r8, r8)
 80043c6:	68fb      	ldr	r3, [r7, #12]
 80043c8:	681b      	ldr	r3, [r3, #0]
 80043ca:	681a      	ldr	r2, [r3, #0]
 80043cc:	68fb      	ldr	r3, [r7, #12]
 80043ce:	681b      	ldr	r3, [r3, #0]
 80043d0:	494c      	ldr	r1, [pc, #304]	; (8004504 <UART_WaitOnFlagUntilTimeout+0x184>)
 80043d2:	400a      	ands	r2, r1
 80043d4:	601a      	str	r2, [r3, #0]
 80043d6:	6c7b      	ldr	r3, [r7, #68]	; 0x44
 80043d8:	633b      	str	r3, [r7, #48]	; 0x30
 80043da:	6b3b      	ldr	r3, [r7, #48]	; 0x30
 80043dc:	f383 8810 	msr	PRIMASK, r3
 80043e0:	46c0      	nop			; (mov r8, r8)
 80043e2:	f3ef 8310 	mrs	r3, PRIMASK
 80043e6:	637b      	str	r3, [r7, #52]	; 0x34
 80043e8:	6b7b      	ldr	r3, [r7, #52]	; 0x34
 80043ea:	643b      	str	r3, [r7, #64]	; 0x40
 80043ec:	2301      	movs	r3, #1
 80043ee:	63bb      	str	r3, [r7, #56]	; 0x38
 80043f0:	6bbb      	ldr	r3, [r7, #56]	; 0x38
 80043f2:	f383 8810 	msr	PRIMASK, r3
 80043f6:	46c0      	nop			; (mov r8, r8)
 80043f8:	68fb      	ldr	r3, [r7, #12]
 80043fa:	681b      	ldr	r3, [r3, #0]
 80043fc:	689a      	ldr	r2, [r3, #8]
 80043fe:	68fb      	ldr	r3, [r7, #12]
 8004400:	681b      	ldr	r3, [r3, #0]
 8004402:	2101      	movs	r1, #1
 8004404:	438a      	bics	r2, r1
 8004406:	609a      	str	r2, [r3, #8]
 8004408:	6c3b      	ldr	r3, [r7, #64]	; 0x40
 800440a:	63fb      	str	r3, [r7, #60]	; 0x3c
 800440c:	6bfb      	ldr	r3, [r7, #60]	; 0x3c
 800440e:	f383 8810 	msr	PRIMASK, r3
 8004412:	46c0      	nop			; (mov r8, r8)
 8004414:	68fb      	ldr	r3, [r7, #12]
 8004416:	2220      	movs	r2, #32
 8004418:	679a      	str	r2, [r3, #120]	; 0x78
 800441a:	68fb      	ldr	r3, [r7, #12]
 800441c:	2220      	movs	r2, #32
 800441e:	67da      	str	r2, [r3, #124]	; 0x7c
 8004420:	68fb      	ldr	r3, [r7, #12]
 8004422:	2274      	movs	r2, #116	; 0x74
 8004424:	2100      	movs	r1, #0
 8004426:	5499      	strb	r1, [r3, r2]
 8004428:	2303      	movs	r3, #3
 800442a:	e067      	b.n	80044fc <UART_WaitOnFlagUntilTimeout+0x17c>
 800442c:	68fb      	ldr	r3, [r7, #12]
 800442e:	681b      	ldr	r3, [r3, #0]
 8004430:	681b      	ldr	r3, [r3, #0]
 8004432:	2204      	movs	r2, #4
 8004434:	4013      	ands	r3, r2
 8004436:	d050      	beq.n	80044da <UART_WaitOnFlagUntilTimeout+0x15a>
 8004438:	68fb      	ldr	r3, [r7, #12]
 800443a:	681b      	ldr	r3, [r3, #0]
 800443c:	69da      	ldr	r2, [r3, #28]
 800443e:	2380      	movs	r3, #128	; 0x80
 8004440:	011b      	lsls	r3, r3, #4
 8004442:	401a      	ands	r2, r3
 8004444:	2380      	movs	r3, #128	; 0x80
 8004446:	011b      	lsls	r3, r3, #4
 8004448:	429a      	cmp	r2, r3
 800444a:	d146      	bne.n	80044da <UART_WaitOnFlagUntilTimeout+0x15a>
 800444c:	68fb      	ldr	r3, [r7, #12]
 800444e:	681b      	ldr	r3, [r3, #0]
 8004450:	2280      	movs	r2, #128	; 0x80
 8004452:	0112      	lsls	r2, r2, #4
 8004454:	621a      	str	r2, [r3, #32]
 8004456:	f3ef 8310 	mrs	r3, PRIMASK
 800445a:	613b      	str	r3, [r7, #16]
 800445c:	693b      	ldr	r3, [r7, #16]
 800445e:	64fb      	str	r3, [r7, #76]	; 0x4c
 8004460:	2301      	movs	r3, #1
 8004462:	617b      	str	r3, [r7, #20]
 8004464:	697b      	ldr	r3, [r7, #20]
 8004466:	f383 8810 	msr	PRIMASK, r3
 800446a:	46c0      	nop			; (mov r8, r8)
 800446c:	68fb      	ldr	r3, [r7, #12]
 800446e:	681b      	ldr	r3, [r3, #0]
 8004470:	681a      	ldr	r2, [r3, #0]
 8004472:	68fb      	ldr	r3, [r7, #12]
 8004474:	681b      	ldr	r3, [r3, #0]
 8004476:	4923      	ldr	r1, [pc, #140]	; (8004504 <UART_WaitOnFlagUntilTimeout+0x184>)
 8004478:	400a      	ands	r2, r1
 800447a:	601a      	str	r2, [r3, #0]
 800447c:	6cfb      	ldr	r3, [r7, #76]	; 0x4c
 800447e:	61bb      	str	r3, [r7, #24]
 8004480:	69bb      	ldr	r3, [r7, #24]
 8004482:	f383 8810 	msr	PRIMASK, r3
 8004486:	46c0      	nop			; (mov r8, r8)
 8004488:	f3ef 8310 	mrs	r3, PRIMASK
 800448c:	61fb      	str	r3, [r7, #28]
 800448e:	69fb      	ldr	r3, [r7, #28]
 8004490:	64bb      	str	r3, [r7, #72]	; 0x48
 8004492:	2301      	movs	r3, #1
 8004494:	623b      	str	r3, [r7, #32]
 8004496:	6a3b      	ldr	r3, [r7, #32]
 8004498:	f383 8810 	msr	PRIMASK, r3
 800449c:	46c0      	nop			; (mov r8, r8)
 800449e:	68fb      	ldr	r3, [r7, #12]
 80044a0:	681b      	ldr	r3, [r3, #0]
 80044a2:	689a      	ldr	r2, [r3, #8]
 80044a4:	68fb      	ldr	r3, [r7, #12]
 80044a6:	681b      	ldr	r3, [r3, #0]
 80044a8:	2101      	movs	r1, #1
 80044aa:	438a      	bics	r2, r1
 80044ac:	609a      	str	r2, [r3, #8]
 80044ae:	6cbb      	ldr	r3, [r7, #72]	; 0x48
 80044b0:	627b      	str	r3, [r7, #36]	; 0x24
 80044b2:	6a7b      	ldr	r3, [r7, #36]	; 0x24
 80044b4:	f383 8810 	msr	PRIMASK, r3
 80044b8:	46c0      	nop			; (mov r8, r8)
 80044ba:	68fb      	ldr	r3, [r7, #12]
 80044bc:	2220      	movs	r2, #32
 80044be:	679a      	str	r2, [r3, #120]	; 0x78
 80044c0:	68fb      	ldr	r3, [r7, #12]
 80044c2:	2220      	movs	r2, #32
 80044c4:	67da      	str	r2, [r3, #124]	; 0x7c
 80044c6:	68fb      	ldr	r3, [r7, #12]
 80044c8:	2280      	movs	r2, #128	; 0x80
 80044ca:	2120      	movs	r1, #32
 80044cc:	5099      	str	r1, [r3, r2]
 80044ce:	68fb      	ldr	r3, [r7, #12]
 80044d0:	2274      	movs	r2, #116	; 0x74
 80044d2:	2100      	movs	r1, #0
 80044d4:	5499      	strb	r1, [r3, r2]
 80044d6:	2303      	movs	r3, #3
 80044d8:	e010      	b.n	80044fc <UART_WaitOnFlagUntilTimeout+0x17c>
 80044da:	68fb      	ldr	r3, [r7, #12]
 80044dc:	681b      	ldr	r3, [r3, #0]
 80044de:	69db      	ldr	r3, [r3, #28]
 80044e0:	68ba      	ldr	r2, [r7, #8]
 80044e2:	4013      	ands	r3, r2
 80044e4:	68ba      	ldr	r2, [r7, #8]
 80044e6:	1ad3      	subs	r3, r2, r3
 80044e8:	425a      	negs	r2, r3
 80044ea:	4153      	adcs	r3, r2
 80044ec:	b2db      	uxtb	r3, r3
 80044ee:	001a      	movs	r2, r3
 80044f0:	1dfb      	adds	r3, r7, #7
 80044f2:	781b      	ldrb	r3, [r3, #0]
 80044f4:	429a      	cmp	r2, r3
 80044f6:	d100      	bne.n	80044fa <UART_WaitOnFlagUntilTimeout+0x17a>
 80044f8:	e74b      	b.n	8004392 <UART_WaitOnFlagUntilTimeout+0x12>
 80044fa:	2300      	movs	r3, #0
 80044fc:	0018      	movs	r0, r3
 80044fe:	46bd      	mov	sp, r7
 8004500:	b014      	add	sp, #80	; 0x50
 8004502:	bd80      	pop	{r7, pc}
 8004504:	fffffe5f 	.word	0xfffffe5f

08004508 <UART_Start_Receive_IT>:
 8004508:	b580      	push	{r7, lr}
 800450a:	b08c      	sub	sp, #48	; 0x30
 800450c:	af00      	add	r7, sp, #0
 800450e:	60f8      	str	r0, [r7, #12]
 8004510:	60b9      	str	r1, [r7, #8]
 8004512:	1dbb      	adds	r3, r7, #6
 8004514:	801a      	strh	r2, [r3, #0]
 8004516:	68fb      	ldr	r3, [r7, #12]
 8004518:	68ba      	ldr	r2, [r7, #8]
 800451a:	655a      	str	r2, [r3, #84]	; 0x54
 800451c:	68fb      	ldr	r3, [r7, #12]
 800451e:	1dba      	adds	r2, r7, #6
 8004520:	2158      	movs	r1, #88	; 0x58
 8004522:	8812      	ldrh	r2, [r2, #0]
 8004524:	525a      	strh	r2, [r3, r1]
 8004526:	68fb      	ldr	r3, [r7, #12]
 8004528:	1dba      	adds	r2, r7, #6
 800452a:	215a      	movs	r1, #90	; 0x5a
 800452c:	8812      	ldrh	r2, [r2, #0]
 800452e:	525a      	strh	r2, [r3, r1]
 8004530:	68fb      	ldr	r3, [r7, #12]
 8004532:	2200      	movs	r2, #0
 8004534:	665a      	str	r2, [r3, #100]	; 0x64
 8004536:	68fb      	ldr	r3, [r7, #12]
 8004538:	689a      	ldr	r2, [r3, #8]
 800453a:	2380      	movs	r3, #128	; 0x80
 800453c:	015b      	lsls	r3, r3, #5
 800453e:	429a      	cmp	r2, r3
 8004540:	d10d      	bne.n	800455e <UART_Start_Receive_IT+0x56>
 8004542:	68fb      	ldr	r3, [r7, #12]
 8004544:	691b      	ldr	r3, [r3, #16]
 8004546:	2b00      	cmp	r3, #0
 8004548:	d104      	bne.n	8004554 <UART_Start_Receive_IT+0x4c>
 800454a:	68fb      	ldr	r3, [r7, #12]
 800454c:	225c      	movs	r2, #92	; 0x5c
 800454e:	4939      	ldr	r1, [pc, #228]	; (8004634 <UART_Start_Receive_IT+0x12c>)
 8004550:	5299      	strh	r1, [r3, r2]
 8004552:	e01a      	b.n	800458a <UART_Start_Receive_IT+0x82>
 8004554:	68fb      	ldr	r3, [r7, #12]
 8004556:	225c      	movs	r2, #92	; 0x5c
 8004558:	21ff      	movs	r1, #255	; 0xff
 800455a:	5299      	strh	r1, [r3, r2]
 800455c:	e015      	b.n	800458a <UART_Start_Receive_IT+0x82>
 800455e:	68fb      	ldr	r3, [r7, #12]
 8004560:	689b      	ldr	r3, [r3, #8]
 8004562:	2b00      	cmp	r3, #0
 8004564:	d10d      	bne.n	8004582 <UART_Start_Receive_IT+0x7a>
 8004566:	68fb      	ldr	r3, [r7, #12]
 8004568:	691b      	ldr	r3, [r3, #16]
 800456a:	2b00      	cmp	r3, #0
 800456c:	d104      	bne.n	8004578 <UART_Start_Receive_IT+0x70>
 800456e:	68fb      	ldr	r3, [r7, #12]
 8004570:	225c      	movs	r2, #92	; 0x5c
 8004572:	21ff      	movs	r1, #255	; 0xff
 8004574:	5299      	strh	r1, [r3, r2]
 8004576:	e008      	b.n	800458a <UART_Start_Receive_IT+0x82>
 8004578:	68fb      	ldr	r3, [r7, #12]
 800457a:	225c      	movs	r2, #92	; 0x5c
 800457c:	217f      	movs	r1, #127	; 0x7f
 800457e:	5299      	strh	r1, [r3, r2]
 8004580:	e003      	b.n	800458a <UART_Start_Receive_IT+0x82>
 8004582:	68fb      	ldr	r3, [r7, #12]
 8004584:	225c      	movs	r2, #92	; 0x5c
 8004586:	2100      	movs	r1, #0
 8004588:	5299      	strh	r1, [r3, r2]
 800458a:	68fb      	ldr	r3, [r7, #12]
 800458c:	2280      	movs	r2, #128	; 0x80
 800458e:	2100      	movs	r1, #0
 8004590:	5099      	str	r1, [r3, r2]
 8004592:	68fb      	ldr	r3, [r7, #12]
 8004594:	2222      	movs	r2, #34	; 0x22
 8004596:	67da      	str	r2, [r3, #124]	; 0x7c
 8004598:	f3ef 8310 	mrs	r3, PRIMASK
 800459c:	61fb      	str	r3, [r7, #28]
 800459e:	69fb      	ldr	r3, [r7, #28]
 80045a0:	62fb      	str	r3, [r7, #44]	; 0x2c
 80045a2:	2301      	movs	r3, #1
 80045a4:	623b      	str	r3, [r7, #32]
 80045a6:	6a3b      	ldr	r3, [r7, #32]
 80045a8:	f383 8810 	msr	PRIMASK, r3
 80045ac:	46c0      	nop			; (mov r8, r8)
 80045ae:	68fb      	ldr	r3, [r7, #12]
 80045b0:	681b      	ldr	r3, [r3, #0]
 80045b2:	689a      	ldr	r2, [r3, #8]
 80045b4:	68fb      	ldr	r3, [r7, #12]
 80045b6:	681b      	ldr	r3, [r3, #0]
 80045b8:	2101      	movs	r1, #1
 80045ba:	430a      	orrs	r2, r1
 80045bc:	609a      	str	r2, [r3, #8]
 80045be:	6afb      	ldr	r3, [r7, #44]	; 0x2c
 80045c0:	627b      	str	r3, [r7, #36]	; 0x24
 80045c2:	6a7b      	ldr	r3, [r7, #36]	; 0x24
 80045c4:	f383 8810 	msr	PRIMASK, r3
 80045c8:	46c0      	nop			; (mov r8, r8)
 80045ca:	68fb      	ldr	r3, [r7, #12]
 80045cc:	689a      	ldr	r2, [r3, #8]
 80045ce:	2380      	movs	r3, #128	; 0x80
 80045d0:	015b      	lsls	r3, r3, #5
 80045d2:	429a      	cmp	r2, r3
 80045d4:	d107      	bne.n	80045e6 <UART_Start_Receive_IT+0xde>
 80045d6:	68fb      	ldr	r3, [r7, #12]
 80045d8:	691b      	ldr	r3, [r3, #16]
 80045da:	2b00      	cmp	r3, #0
 80045dc:	d103      	bne.n	80045e6 <UART_Start_Receive_IT+0xde>
 80045de:	68fb      	ldr	r3, [r7, #12]
 80045e0:	4a15      	ldr	r2, [pc, #84]	; (8004638 <UART_Start_Receive_IT+0x130>)
 80045e2:	665a      	str	r2, [r3, #100]	; 0x64
 80045e4:	e002      	b.n	80045ec <UART_Start_Receive_IT+0xe4>
 80045e6:	68fb      	ldr	r3, [r7, #12]
 80045e8:	4a14      	ldr	r2, [pc, #80]	; (800463c <UART_Start_Receive_IT+0x134>)
 80045ea:	665a      	str	r2, [r3, #100]	; 0x64
 80045ec:	68fb      	ldr	r3, [r7, #12]
 80045ee:	2274      	movs	r2, #116	; 0x74
 80045f0:	2100      	movs	r1, #0
 80045f2:	5499      	strb	r1, [r3, r2]
 80045f4:	f3ef 8310 	mrs	r3, PRIMASK
 80045f8:	613b      	str	r3, [r7, #16]
 80045fa:	693b      	ldr	r3, [r7, #16]
 80045fc:	62bb      	str	r3, [r7, #40]	; 0x28
 80045fe:	2301      	movs	r3, #1
 8004600:	617b      	str	r3, [r7, #20]
 8004602:	697b      	ldr	r3, [r7, #20]
 8004604:	f383 8810 	msr	PRIMASK, r3
 8004608:	46c0      	nop			; (mov r8, r8)
 800460a:	68fb      	ldr	r3, [r7, #12]
 800460c:	681b      	ldr	r3, [r3, #0]
 800460e:	681a      	ldr	r2, [r3, #0]
 8004610:	68fb      	ldr	r3, [r7, #12]
 8004612:	681b      	ldr	r3, [r3, #0]
 8004614:	2190      	movs	r1, #144	; 0x90
 8004616:	0049      	lsls	r1, r1, #1
 8004618:	430a      	orrs	r2, r1
 800461a:	601a      	str	r2, [r3, #0]
 800461c:	6abb      	ldr	r3, [r7, #40]	; 0x28
 800461e:	61bb      	str	r3, [r7, #24]
 8004620:	69bb      	ldr	r3, [r7, #24]
 8004622:	f383 8810 	msr	PRIMASK, r3
 8004626:	46c0      	nop			; (mov r8, r8)
 8004628:	2300      	movs	r3, #0
 800462a:	0018      	movs	r0, r3
 800462c:	46bd      	mov	sp, r7
 800462e:	b00c      	add	sp, #48	; 0x30
 8004630:	bd80      	pop	{r7, pc}
 8004632:	46c0      	nop			; (mov r8, r8)
 8004634:	000001ff 	.word	0x000001ff
 8004638:	080048f1 	.word	0x080048f1
 800463c:	08004789 	.word	0x08004789

08004640 <UART_EndRxTransfer>:
 8004640:	b580      	push	{r7, lr}
 8004642:	b08e      	sub	sp, #56	; 0x38
 8004644:	af00      	add	r7, sp, #0
 8004646:	6078      	str	r0, [r7, #4]
 8004648:	f3ef 8310 	mrs	r3, PRIMASK
 800464c:	617b      	str	r3, [r7, #20]
 800464e:	697b      	ldr	r3, [r7, #20]
 8004650:	637b      	str	r3, [r7, #52]	; 0x34
 8004652:	2301      	movs	r3, #1
 8004654:	61bb      	str	r3, [r7, #24]
 8004656:	69bb      	ldr	r3, [r7, #24]
 8004658:	f383 8810 	msr	PRIMASK, r3
 800465c:	46c0      	nop			; (mov r8, r8)
 800465e:	687b      	ldr	r3, [r7, #4]
 8004660:	681b      	ldr	r3, [r3, #0]
 8004662:	681a      	ldr	r2, [r3, #0]
 8004664:	687b      	ldr	r3, [r7, #4]
 8004666:	681b      	ldr	r3, [r3, #0]
 8004668:	4925      	ldr	r1, [pc, #148]	; (8004700 <UART_EndRxTransfer+0xc0>)
 800466a:	400a      	ands	r2, r1
 800466c:	601a      	str	r2, [r3, #0]
 800466e:	6b7b      	ldr	r3, [r7, #52]	; 0x34
 8004670:	61fb      	str	r3, [r7, #28]
 8004672:	69fb      	ldr	r3, [r7, #28]
 8004674:	f383 8810 	msr	PRIMASK, r3
 8004678:	46c0      	nop			; (mov r8, r8)
 800467a:	f3ef 8310 	mrs	r3, PRIMASK
 800467e:	623b      	str	r3, [r7, #32]
 8004680:	6a3b      	ldr	r3, [r7, #32]
 8004682:	633b      	str	r3, [r7, #48]	; 0x30
 8004684:	2301      	movs	r3, #1
 8004686:	627b      	str	r3, [r7, #36]	; 0x24
 8004688:	6a7b      	ldr	r3, [r7, #36]	; 0x24
 800468a:	f383 8810 	msr	PRIMASK, r3
 800468e:	46c0      	nop			; (mov r8, r8)
 8004690:	687b      	ldr	r3, [r7, #4]
 8004692:	681b      	ldr	r3, [r3, #0]
 8004694:	689a      	ldr	r2, [r3, #8]
 8004696:	687b      	ldr	r3, [r7, #4]
 8004698:	681b      	ldr	r3, [r3, #0]
 800469a:	2101      	movs	r1, #1
 800469c:	438a      	bics	r2, r1
 800469e:	609a      	str	r2, [r3, #8]
 80046a0:	6b3b      	ldr	r3, [r7, #48]	; 0x30
 80046a2:	62bb      	str	r3, [r7, #40]	; 0x28
 80046a4:	6abb      	ldr	r3, [r7, #40]	; 0x28
 80046a6:	f383 8810 	msr	PRIMASK, r3
 80046aa:	46c0      	nop			; (mov r8, r8)
 80046ac:	687b      	ldr	r3, [r7, #4]
 80046ae:	6e1b      	ldr	r3, [r3, #96]	; 0x60
 80046b0:	2b01      	cmp	r3, #1
 80046b2:	d118      	bne.n	80046e6 <UART_EndRxTransfer+0xa6>
 80046b4:	f3ef 8310 	mrs	r3, PRIMASK
 80046b8:	60bb      	str	r3, [r7, #8]
 80046ba:	68bb      	ldr	r3, [r7, #8]
 80046bc:	62fb      	str	r3, [r7, #44]	; 0x2c
 80046be:	2301      	movs	r3, #1
 80046c0:	60fb      	str	r3, [r7, #12]
 80046c2:	68fb      	ldr	r3, [r7, #12]
 80046c4:	f383 8810 	msr	PRIMASK, r3
 80046c8:	46c0      	nop			; (mov r8, r8)
 80046ca:	687b      	ldr	r3, [r7, #4]
 80046cc:	681b      	ldr	r3, [r3, #0]
 80046ce:	681a      	ldr	r2, [r3, #0]
 80046d0:	687b      	ldr	r3, [r7, #4]
 80046d2:	681b      	ldr	r3, [r3, #0]
 80046d4:	2110      	movs	r1, #16
 80046d6:	438a      	bics	r2, r1
 80046d8:	601a      	str	r2, [r3, #0]
 80046da:	6afb      	ldr	r3, [r7, #44]	; 0x2c
 80046dc:	613b      	str	r3, [r7, #16]
 80046de:	693b      	ldr	r3, [r7, #16]
 80046e0:	f383 8810 	msr	PRIMASK, r3
 80046e4:	46c0      	nop			; (mov r8, r8)
 80046e6:	687b      	ldr	r3, [r7, #4]
 80046e8:	2220      	movs	r2, #32
 80046ea:	67da      	str	r2, [r3, #124]	; 0x7c
 80046ec:	687b      	ldr	r3, [r7, #4]
 80046ee:	2200      	movs	r2, #0
 80046f0:	661a      	str	r2, [r3, #96]	; 0x60
 80046f2:	687b      	ldr	r3, [r7, #4]
 80046f4:	2200      	movs	r2, #0
 80046f6:	665a      	str	r2, [r3, #100]	; 0x64
 80046f8:	46c0      	nop			; (mov r8, r8)
 80046fa:	46bd      	mov	sp, r7
 80046fc:	b00e      	add	sp, #56	; 0x38
 80046fe:	bd80      	pop	{r7, pc}
 8004700:	fffffedf 	.word	0xfffffedf

08004704 <UART_DMAAbortOnError>:
 8004704:	b580      	push	{r7, lr}
 8004706:	b084      	sub	sp, #16
 8004708:	af00      	add	r7, sp, #0
 800470a:	6078      	str	r0, [r7, #4]
 800470c:	687b      	ldr	r3, [r7, #4]
 800470e:	6a5b      	ldr	r3, [r3, #36]	; 0x24
 8004710:	60fb      	str	r3, [r7, #12]
 8004712:	68fb      	ldr	r3, [r7, #12]
 8004714:	225a      	movs	r2, #90	; 0x5a
 8004716:	2100      	movs	r1, #0
 8004718:	5299      	strh	r1, [r3, r2]
 800471a:	68fb      	ldr	r3, [r7, #12]
 800471c:	2252      	movs	r2, #82	; 0x52
 800471e:	2100      	movs	r1, #0
 8004720:	5299      	strh	r1, [r3, r2]
 8004722:	68fb      	ldr	r3, [r7, #12]
 8004724:	0018      	movs	r0, r3
 8004726:	f7ff fbdb 	bl	8003ee0 <HAL_UART_ErrorCallback>
 800472a:	46c0      	nop			; (mov r8, r8)
 800472c:	46bd      	mov	sp, r7
 800472e:	b004      	add	sp, #16
 8004730:	bd80      	pop	{r7, pc}

08004732 <UART_EndTransmit_IT>:
 8004732:	b580      	push	{r7, lr}
 8004734:	b086      	sub	sp, #24
 8004736:	af00      	add	r7, sp, #0
 8004738:	6078      	str	r0, [r7, #4]
 800473a:	f3ef 8310 	mrs	r3, PRIMASK
 800473e:	60bb      	str	r3, [r7, #8]
 8004740:	68bb      	ldr	r3, [r7, #8]
 8004742:	617b      	str	r3, [r7, #20]
 8004744:	2301      	movs	r3, #1
 8004746:	60fb      	str	r3, [r7, #12]
 8004748:	68fb      	ldr	r3, [r7, #12]
 800474a:	f383 8810 	msr	PRIMASK, r3
 800474e:	46c0      	nop			; (mov r8, r8)
 8004750:	687b      	ldr	r3, [r7, #4]
 8004752:	681b      	ldr	r3, [r3, #0]
 8004754:	681a      	ldr	r2, [r3, #0]
 8004756:	687b      	ldr	r3, [r7, #4]
 8004758:	681b      	ldr	r3, [r3, #0]
 800475a:	2140      	movs	r1, #64	; 0x40
 800475c:	438a      	bics	r2, r1
 800475e:	601a      	str	r2, [r3, #0]
 8004760:	697b      	ldr	r3, [r7, #20]
 8004762:	613b      	str	r3, [r7, #16]
 8004764:	693b      	ldr	r3, [r7, #16]
 8004766:	f383 8810 	msr	PRIMASK, r3
 800476a:	46c0      	nop			; (mov r8, r8)
 800476c:	687b      	ldr	r3, [r7, #4]
 800476e:	2220      	movs	r2, #32
 8004770:	679a      	str	r2, [r3, #120]	; 0x78
 8004772:	687b      	ldr	r3, [r7, #4]
 8004774:	2200      	movs	r2, #0
 8004776:	669a      	str	r2, [r3, #104]	; 0x68
 8004778:	687b      	ldr	r3, [r7, #4]
 800477a:	0018      	movs	r0, r3
 800477c:	f7ff fba8 	bl	8003ed0 <HAL_UART_TxCpltCallback>
 8004780:	46c0      	nop			; (mov r8, r8)
 8004782:	46bd      	mov	sp, r7
 8004784:	b006      	add	sp, #24
 8004786:	bd80      	pop	{r7, pc}

08004788 <UART_RxISR_8BIT>:
 8004788:	b580      	push	{r7, lr}
 800478a:	b090      	sub	sp, #64	; 0x40
 800478c:	af00      	add	r7, sp, #0
 800478e:	6078      	str	r0, [r7, #4]
 8004790:	203e      	movs	r0, #62	; 0x3e
 8004792:	183b      	adds	r3, r7, r0
 8004794:	687a      	ldr	r2, [r7, #4]
 8004796:	215c      	movs	r1, #92	; 0x5c
 8004798:	5a52      	ldrh	r2, [r2, r1]
 800479a:	801a      	strh	r2, [r3, #0]
 800479c:	687b      	ldr	r3, [r7, #4]
 800479e:	6fdb      	ldr	r3, [r3, #124]	; 0x7c
 80047a0:	2b22      	cmp	r3, #34	; 0x22
 80047a2:	d000      	beq.n	80047a6 <UART_RxISR_8BIT+0x1e>
 80047a4:	e095      	b.n	80048d2 <UART_RxISR_8BIT+0x14a>
 80047a6:	687b      	ldr	r3, [r7, #4]
 80047a8:	681a      	ldr	r2, [r3, #0]
 80047aa:	213c      	movs	r1, #60	; 0x3c
 80047ac:	187b      	adds	r3, r7, r1
 80047ae:	8c92      	ldrh	r2, [r2, #36]	; 0x24
 80047b0:	801a      	strh	r2, [r3, #0]
 80047b2:	187b      	adds	r3, r7, r1
 80047b4:	881b      	ldrh	r3, [r3, #0]
 80047b6:	b2da      	uxtb	r2, r3
 80047b8:	183b      	adds	r3, r7, r0
 80047ba:	881b      	ldrh	r3, [r3, #0]
 80047bc:	b2d9      	uxtb	r1, r3
 80047be:	687b      	ldr	r3, [r7, #4]
 80047c0:	6d5b      	ldr	r3, [r3, #84]	; 0x54
 80047c2:	400a      	ands	r2, r1
 80047c4:	b2d2      	uxtb	r2, r2
 80047c6:	701a      	strb	r2, [r3, #0]
 80047c8:	687b      	ldr	r3, [r7, #4]
 80047ca:	6d5b      	ldr	r3, [r3, #84]	; 0x54
 80047cc:	1c5a      	adds	r2, r3, #1
 80047ce:	687b      	ldr	r3, [r7, #4]
 80047d0:	655a      	str	r2, [r3, #84]	; 0x54
 80047d2:	687b      	ldr	r3, [r7, #4]
 80047d4:	225a      	movs	r2, #90	; 0x5a
 80047d6:	5a9b      	ldrh	r3, [r3, r2]
 80047d8:	b29b      	uxth	r3, r3
 80047da:	3b01      	subs	r3, #1
 80047dc:	b299      	uxth	r1, r3
 80047de:	687b      	ldr	r3, [r7, #4]
 80047e0:	225a      	movs	r2, #90	; 0x5a
 80047e2:	5299      	strh	r1, [r3, r2]
 80047e4:	687b      	ldr	r3, [r7, #4]
 80047e6:	225a      	movs	r2, #90	; 0x5a
 80047e8:	5a9b      	ldrh	r3, [r3, r2]
 80047ea:	b29b      	uxth	r3, r3
 80047ec:	2b00      	cmp	r3, #0
 80047ee:	d178      	bne.n	80048e2 <UART_RxISR_8BIT+0x15a>
 80047f0:	f3ef 8310 	mrs	r3, PRIMASK
 80047f4:	61bb      	str	r3, [r7, #24]
 80047f6:	69bb      	ldr	r3, [r7, #24]
 80047f8:	63bb      	str	r3, [r7, #56]	; 0x38
 80047fa:	2301      	movs	r3, #1
 80047fc:	61fb      	str	r3, [r7, #28]
 80047fe:	69fb      	ldr	r3, [r7, #28]
 8004800:	f383 8810 	msr	PRIMASK, r3
 8004804:	46c0      	nop			; (mov r8, r8)
 8004806:	687b      	ldr	r3, [r7, #4]
 8004808:	681b      	ldr	r3, [r3, #0]
 800480a:	681a      	ldr	r2, [r3, #0]
 800480c:	687b      	ldr	r3, [r7, #4]
 800480e:	681b      	ldr	r3, [r3, #0]
 8004810:	4936      	ldr	r1, [pc, #216]	; (80048ec <UART_RxISR_8BIT+0x164>)
 8004812:	400a      	ands	r2, r1
 8004814:	601a      	str	r2, [r3, #0]
 8004816:	6bbb      	ldr	r3, [r7, #56]	; 0x38
 8004818:	623b      	str	r3, [r7, #32]
 800481a:	6a3b      	ldr	r3, [r7, #32]
 800481c:	f383 8810 	msr	PRIMASK, r3
 8004820:	46c0      	nop			; (mov r8, r8)
 8004822:	f3ef 8310 	mrs	r3, PRIMASK
 8004826:	627b      	str	r3, [r7, #36]	; 0x24
 8004828:	6a7b      	ldr	r3, [r7, #36]	; 0x24
 800482a:	637b      	str	r3, [r7, #52]	; 0x34
 800482c:	2301      	movs	r3, #1
 800482e:	62bb      	str	r3, [r7, #40]	; 0x28
 8004830:	6abb      	ldr	r3, [r7, #40]	; 0x28
 8004832:	f383 8810 	msr	PRIMASK, r3
 8004836:	46c0      	nop			; (mov r8, r8)
 8004838:	687b      	ldr	r3, [r7, #4]
 800483a:	681b      	ldr	r3, [r3, #0]
 800483c:	689a      	ldr	r2, [r3, #8]
 800483e:	687b      	ldr	r3, [r7, #4]
 8004840:	681b      	ldr	r3, [r3, #0]
 8004842:	2101      	movs	r1, #1
 8004844:	438a      	bics	r2, r1
 8004846:	609a      	str	r2, [r3, #8]
 8004848:	6b7b      	ldr	r3, [r7, #52]	; 0x34
 800484a:	62fb      	str	r3, [r7, #44]	; 0x2c
 800484c:	6afb      	ldr	r3, [r7, #44]	; 0x2c
 800484e:	f383 8810 	msr	PRIMASK, r3
 8004852:	46c0      	nop			; (mov r8, r8)
 8004854:	687b      	ldr	r3, [r7, #4]
 8004856:	2220      	movs	r2, #32
 8004858:	67da      	str	r2, [r3, #124]	; 0x7c
 800485a:	687b      	ldr	r3, [r7, #4]
 800485c:	2200      	movs	r2, #0
 800485e:	665a      	str	r2, [r3, #100]	; 0x64
 8004860:	687b      	ldr	r3, [r7, #4]
 8004862:	6e1b      	ldr	r3, [r3, #96]	; 0x60
 8004864:	2b01      	cmp	r3, #1
 8004866:	d12f      	bne.n	80048c8 <UART_RxISR_8BIT+0x140>
 8004868:	687b      	ldr	r3, [r7, #4]
 800486a:	2200      	movs	r2, #0
 800486c:	661a      	str	r2, [r3, #96]	; 0x60
 800486e:	f3ef 8310 	mrs	r3, PRIMASK
 8004872:	60fb      	str	r3, [r7, #12]
 8004874:	68fb      	ldr	r3, [r7, #12]
 8004876:	633b      	str	r3, [r7, #48]	; 0x30
 8004878:	2301      	movs	r3, #1
 800487a:	613b      	str	r3, [r7, #16]
 800487c:	693b      	ldr	r3, [r7, #16]
 800487e:	f383 8810 	msr	PRIMASK, r3
 8004882:	46c0      	nop			; (mov r8, r8)
 8004884:	687b      	ldr	r3, [r7, #4]
 8004886:	681b      	ldr	r3, [r3, #0]
 8004888:	681a      	ldr	r2, [r3, #0]
 800488a:	687b      	ldr	r3, [r7, #4]
 800488c:	681b      	ldr	r3, [r3, #0]
 800488e:	2110      	movs	r1, #16
 8004890:	438a      	bics	r2, r1
 8004892:	601a      	str	r2, [r3, #0]
 8004894:	6b3b      	ldr	r3, [r7, #48]	; 0x30
 8004896:	617b      	str	r3, [r7, #20]
 8004898:	697b      	ldr	r3, [r7, #20]
 800489a:	f383 8810 	msr	PRIMASK, r3
 800489e:	46c0      	nop			; (mov r8, r8)
 80048a0:	687b      	ldr	r3, [r7, #4]
 80048a2:	681b      	ldr	r3, [r3, #0]
 80048a4:	69db      	ldr	r3, [r3, #28]
 80048a6:	2210      	movs	r2, #16
 80048a8:	4013      	ands	r3, r2
 80048aa:	2b10      	cmp	r3, #16
 80048ac:	d103      	bne.n	80048b6 <UART_RxISR_8BIT+0x12e>
 80048ae:	687b      	ldr	r3, [r7, #4]
 80048b0:	681b      	ldr	r3, [r3, #0]
 80048b2:	2210      	movs	r2, #16
 80048b4:	621a      	str	r2, [r3, #32]
 80048b6:	687b      	ldr	r3, [r7, #4]
 80048b8:	2258      	movs	r2, #88	; 0x58
 80048ba:	5a9a      	ldrh	r2, [r3, r2]
 80048bc:	687b      	ldr	r3, [r7, #4]
 80048be:	0011      	movs	r1, r2
 80048c0:	0018      	movs	r0, r3
 80048c2:	f7ff fb15 	bl	8003ef0 <HAL_UARTEx_RxEventCallback>
 80048c6:	e00c      	b.n	80048e2 <UART_RxISR_8BIT+0x15a>
 80048c8:	687b      	ldr	r3, [r7, #4]
 80048ca:	0018      	movs	r0, r3
 80048cc:	f7fb fcb0 	bl	8000230 <HAL_UART_RxCpltCallback>
 80048d0:	e007      	b.n	80048e2 <UART_RxISR_8BIT+0x15a>
 80048d2:	687b      	ldr	r3, [r7, #4]
 80048d4:	681b      	ldr	r3, [r3, #0]
 80048d6:	699a      	ldr	r2, [r3, #24]
 80048d8:	687b      	ldr	r3, [r7, #4]
 80048da:	681b      	ldr	r3, [r3, #0]
 80048dc:	2108      	movs	r1, #8
 80048de:	430a      	orrs	r2, r1
 80048e0:	619a      	str	r2, [r3, #24]
 80048e2:	46c0      	nop			; (mov r8, r8)
 80048e4:	46bd      	mov	sp, r7
 80048e6:	b010      	add	sp, #64	; 0x40
 80048e8:	bd80      	pop	{r7, pc}
 80048ea:	46c0      	nop			; (mov r8, r8)
 80048ec:	fffffedf 	.word	0xfffffedf

080048f0 <UART_RxISR_16BIT>:
 80048f0:	b580      	push	{r7, lr}
 80048f2:	b090      	sub	sp, #64	; 0x40
 80048f4:	af00      	add	r7, sp, #0
 80048f6:	6078      	str	r0, [r7, #4]
 80048f8:	203e      	movs	r0, #62	; 0x3e
 80048fa:	183b      	adds	r3, r7, r0
 80048fc:	687a      	ldr	r2, [r7, #4]
 80048fe:	215c      	movs	r1, #92	; 0x5c
 8004900:	5a52      	ldrh	r2, [r2, r1]
 8004902:	801a      	strh	r2, [r3, #0]
 8004904:	687b      	ldr	r3, [r7, #4]
 8004906:	6fdb      	ldr	r3, [r3, #124]	; 0x7c
 8004908:	2b22      	cmp	r3, #34	; 0x22
 800490a:	d000      	beq.n	800490e <UART_RxISR_16BIT+0x1e>
 800490c:	e095      	b.n	8004a3a <UART_RxISR_16BIT+0x14a>
 800490e:	687b      	ldr	r3, [r7, #4]
 8004910:	681a      	ldr	r2, [r3, #0]
 8004912:	213c      	movs	r1, #60	; 0x3c
 8004914:	187b      	adds	r3, r7, r1
 8004916:	8c92      	ldrh	r2, [r2, #36]	; 0x24
 8004918:	801a      	strh	r2, [r3, #0]
 800491a:	687b      	ldr	r3, [r7, #4]
 800491c:	6d5b      	ldr	r3, [r3, #84]	; 0x54
 800491e:	63bb      	str	r3, [r7, #56]	; 0x38
 8004920:	187b      	adds	r3, r7, r1
 8004922:	183a      	adds	r2, r7, r0
 8004924:	881b      	ldrh	r3, [r3, #0]
 8004926:	8812      	ldrh	r2, [r2, #0]
 8004928:	4013      	ands	r3, r2
 800492a:	b29a      	uxth	r2, r3
 800492c:	6bbb      	ldr	r3, [r7, #56]	; 0x38
 800492e:	801a      	strh	r2, [r3, #0]
 8004930:	687b      	ldr	r3, [r7, #4]
 8004932:	6d5b      	ldr	r3, [r3, #84]	; 0x54
 8004934:	1c9a      	adds	r2, r3, #2
 8004936:	687b      	ldr	r3, [r7, #4]
 8004938:	655a      	str	r2, [r3, #84]	; 0x54
 800493a:	687b      	ldr	r3, [r7, #4]
 800493c:	225a      	movs	r2, #90	; 0x5a
 800493e:	5a9b      	ldrh	r3, [r3, r2]
 8004940:	b29b      	uxth	r3, r3
 8004942:	3b01      	subs	r3, #1
 8004944:	b299      	uxth	r1, r3
 8004946:	687b      	ldr	r3, [r7, #4]
 8004948:	225a      	movs	r2, #90	; 0x5a
 800494a:	5299      	strh	r1, [r3, r2]
 800494c:	687b      	ldr	r3, [r7, #4]
 800494e:	225a      	movs	r2, #90	; 0x5a
 8004950:	5a9b      	ldrh	r3, [r3, r2]
 8004952:	b29b      	uxth	r3, r3
 8004954:	2b00      	cmp	r3, #0
 8004956:	d178      	bne.n	8004a4a <UART_RxISR_16BIT+0x15a>
 8004958:	f3ef 8310 	mrs	r3, PRIMASK
 800495c:	617b      	str	r3, [r7, #20]
 800495e:	697b      	ldr	r3, [r7, #20]
 8004960:	637b      	str	r3, [r7, #52]	; 0x34
 8004962:	2301      	movs	r3, #1
 8004964:	61bb      	str	r3, [r7, #24]
 8004966:	69bb      	ldr	r3, [r7, #24]
 8004968:	f383 8810 	msr	PRIMASK, r3
 800496c:	46c0      	nop			; (mov r8, r8)
 800496e:	687b      	ldr	r3, [r7, #4]
 8004970:	681b      	ldr	r3, [r3, #0]
 8004972:	681a      	ldr	r2, [r3, #0]
 8004974:	687b      	ldr	r3, [r7, #4]
 8004976:	681b      	ldr	r3, [r3, #0]
 8004978:	4936      	ldr	r1, [pc, #216]	; (8004a54 <UART_RxISR_16BIT+0x164>)
 800497a:	400a      	ands	r2, r1
 800497c:	601a      	str	r2, [r3, #0]
 800497e:	6b7b      	ldr	r3, [r7, #52]	; 0x34
 8004980:	61fb      	str	r3, [r7, #28]
 8004982:	69fb      	ldr	r3, [r7, #28]
 8004984:	f383 8810 	msr	PRIMASK, r3
 8004988:	46c0      	nop			; (mov r8, r8)
 800498a:	f3ef 8310 	mrs	r3, PRIMASK
 800498e:	623b      	str	r3, [r7, #32]
 8004990:	6a3b      	ldr	r3, [r7, #32]
 8004992:	633b      	str	r3, [r7, #48]	; 0x30
 8004994:	2301      	movs	r3, #1
 8004996:	627b      	str	r3, [r7, #36]	; 0x24
 8004998:	6a7b      	ldr	r3, [r7, #36]	; 0x24
 800499a:	f383 8810 	msr	PRIMASK, r3
 800499e:	46c0      	nop			; (mov r8, r8)
 80049a0:	687b      	ldr	r3, [r7, #4]
 80049a2:	681b      	ldr	r3, [r3, #0]
 80049a4:	689a      	ldr	r2, [r3, #8]
 80049a6:	687b      	ldr	r3, [r7, #4]
 80049a8:	681b      	ldr	r3, [r3, #0]
 80049aa:	2101      	movs	r1, #1
 80049ac:	438a      	bics	r2, r1
 80049ae:	609a      	str	r2, [r3, #8]
 80049b0:	6b3b      	ldr	r3, [r7, #48]	; 0x30
 80049b2:	62bb      	str	r3, [r7, #40]	; 0x28
 80049b4:	6abb      	ldr	r3, [r7, #40]	; 0x28
 80049b6:	f383 8810 	msr	PRIMASK, r3
 80049ba:	46c0      	nop			; (mov r8, r8)
 80049bc:	687b      	ldr	r3, [r7, #4]
 80049be:	2220      	movs	r2, #32
 80049c0:	67da      	str	r2, [r3, #124]	; 0x7c
 80049c2:	687b      	ldr	r3, [r7, #4]
 80049c4:	2200      	movs	r2, #0
 80049c6:	665a      	str	r2, [r3, #100]	; 0x64
 80049c8:	687b      	ldr	r3, [r7, #4]
 80049ca:	6e1b      	ldr	r3, [r3, #96]	; 0x60
 80049cc:	2b01      	cmp	r3, #1
 80049ce:	d12f      	bne.n	8004a30 <UART_RxISR_16BIT+0x140>
 80049d0:	687b      	ldr	r3, [r7, #4]
 80049d2:	2200      	movs	r2, #0
 80049d4:	661a      	str	r2, [r3, #96]	; 0x60
 80049d6:	f3ef 8310 	mrs	r3, PRIMASK
 80049da:	60bb      	str	r3, [r7, #8]
 80049dc:	68bb      	ldr	r3, [r7, #8]
 80049de:	62fb      	str	r3, [r7, #44]	; 0x2c
 80049e0:	2301      	movs	r3, #1
 80049e2:	60fb      	str	r3, [r7, #12]
 80049e4:	68fb      	ldr	r3, [r7, #12]
 80049e6:	f383 8810 	msr	PRIMASK, r3
 80049ea:	46c0      	nop			; (mov r8, r8)
 80049ec:	687b      	ldr	r3, [r7, #4]
 80049ee:	681b      	ldr	r3, [r3, #0]
 80049f0:	681a      	ldr	r2, [r3, #0]
 80049f2:	687b      	ldr	r3, [r7, #4]
 80049f4:	681b      	ldr	r3, [r3, #0]
 80049f6:	2110      	movs	r1, #16
 80049f8:	438a      	bics	r2, r1
 80049fa:	601a      	str	r2, [r3, #0]
 80049fc:	6afb      	ldr	r3, [r7, #44]	; 0x2c
 80049fe:	613b      	str	r3, [r7, #16]
 8004a00:	693b      	ldr	r3, [r7, #16]
 8004a02:	f383 8810 	msr	PRIMASK, r3
 8004a06:	46c0      	nop			; (mov r8, r8)
 8004a08:	687b      	ldr	r3, [r7, #4]
 8004a0a:	681b      	ldr	r3, [r3, #0]
 8004a0c:	69db      	ldr	r3, [r3, #28]
 8004a0e:	2210      	movs	r2, #16
 8004a10:	4013      	ands	r3, r2
 8004a12:	2b10      	cmp	r3, #16
 8004a14:	d103      	bne.n	8004a1e <UART_RxISR_16BIT+0x12e>
 8004a16:	687b      	ldr	r3, [r7, #4]
 8004a18:	681b      	ldr	r3, [r3, #0]
 8004a1a:	2210      	movs	r2, #16
 8004a1c:	621a      	str	r2, [r3, #32]
 8004a1e:	687b      	ldr	r3, [r7, #4]
 8004a20:	2258      	movs	r2, #88	; 0x58
 8004a22:	5a9a      	ldrh	r2, [r3, r2]
 8004a24:	687b      	ldr	r3, [r7, #4]
 8004a26:	0011      	movs	r1, r2
 8004a28:	0018      	movs	r0, r3
 8004a2a:	f7ff fa61 	bl	8003ef0 <HAL_UARTEx_RxEventCallback>
 8004a2e:	e00c      	b.n	8004a4a <UART_RxISR_16BIT+0x15a>
 8004a30:	687b      	ldr	r3, [r7, #4]
 8004a32:	0018      	movs	r0, r3
 8004a34:	f7fb fbfc 	bl	8000230 <HAL_UART_RxCpltCallback>
 8004a38:	e007      	b.n	8004a4a <UART_RxISR_16BIT+0x15a>
 8004a3a:	687b      	ldr	r3, [r7, #4]
 8004a3c:	681b      	ldr	r3, [r3, #0]
 8004a3e:	699a      	ldr	r2, [r3, #24]
 8004a40:	687b      	ldr	r3, [r7, #4]
 8004a42:	681b      	ldr	r3, [r3, #0]
 8004a44:	2108      	movs	r1, #8
 8004a46:	430a      	orrs	r2, r1
 8004a48:	619a      	str	r2, [r3, #24]
 8004a4a:	46c0      	nop			; (mov r8, r8)
 8004a4c:	46bd      	mov	sp, r7
 8004a4e:	b010      	add	sp, #64	; 0x40
 8004a50:	bd80      	pop	{r7, pc}
 8004a52:	46c0      	nop			; (mov r8, r8)
 8004a54:	fffffedf 	.word	0xfffffedf

08004a58 <__libc_init_array>:
 8004a58:	b570      	push	{r4, r5, r6, lr}
 8004a5a:	2600      	movs	r6, #0
 8004a5c:	4d0c      	ldr	r5, [pc, #48]	; (8004a90 <__libc_init_array+0x38>)
 8004a5e:	4c0d      	ldr	r4, [pc, #52]	; (8004a94 <__libc_init_array+0x3c>)
 8004a60:	1b64      	subs	r4, r4, r5
 8004a62:	10a4      	asrs	r4, r4, #2
 8004a64:	42a6      	cmp	r6, r4
 8004a66:	d109      	bne.n	8004a7c <__libc_init_array+0x24>
 8004a68:	2600      	movs	r6, #0
 8004a6a:	f000 f821 	bl	8004ab0 <_init>
 8004a6e:	4d0a      	ldr	r5, [pc, #40]	; (8004a98 <__libc_init_array+0x40>)
 8004a70:	4c0a      	ldr	r4, [pc, #40]	; (8004a9c <__libc_init_array+0x44>)
 8004a72:	1b64      	subs	r4, r4, r5
 8004a74:	10a4      	asrs	r4, r4, #2
 8004a76:	42a6      	cmp	r6, r4
 8004a78:	d105      	bne.n	8004a86 <__libc_init_array+0x2e>
 8004a7a:	bd70      	pop	{r4, r5, r6, pc}
 8004a7c:	00b3      	lsls	r3, r6, #2
 8004a7e:	58eb      	ldr	r3, [r5, r3]
 8004a80:	4798      	blx	r3
 8004a82:	3601      	adds	r6, #1
 8004a84:	e7ee      	b.n	8004a64 <__libc_init_array+0xc>
 8004a86:	00b3      	lsls	r3, r6, #2
 8004a88:	58eb      	ldr	r3, [r5, r3]
 8004a8a:	4798      	blx	r3
 8004a8c:	3601      	adds	r6, #1
 8004a8e:	e7f2      	b.n	8004a76 <__libc_init_array+0x1e>
 8004a90:	08004b00 	.word	0x08004b00
 8004a94:	08004b00 	.word	0x08004b00
 8004a98:	08004b00 	.word	0x08004b00
 8004a9c:	08004b04 	.word	0x08004b04

08004aa0 <memset>:
 8004aa0:	0003      	movs	r3, r0
 8004aa2:	1882      	adds	r2, r0, r2
 8004aa4:	4293      	cmp	r3, r2
 8004aa6:	d100      	bne.n	8004aaa <memset+0xa>
 8004aa8:	4770      	bx	lr
 8004aaa:	7019      	strb	r1, [r3, #0]
 8004aac:	3301      	adds	r3, #1
 8004aae:	e7f9      	b.n	8004aa4 <memset+0x4>

08004ab0 <_init>:
 8004ab0:	b5f8      	push	{r3, r4, r5, r6, r7, lr}
 8004ab2:	46c0      	nop			; (mov r8, r8)
 8004ab4:	bcf8      	pop	{r3, r4, r5, r6, r7}
 8004ab6:	bc08      	pop	{r3}
 8004ab8:	469e      	mov	lr, r3
 8004aba:	4770      	bx	lr

08004abc <_fini>:
 8004abc:	b5f8      	push	{r3, r4, r5, r6, r7, lr}
 8004abe:	46c0      	nop			; (mov r8, r8)
 8004ac0:	bcf8      	pop	{r3, r4, r5, r6, r7}
 8004ac2:	bc08      	pop	{r3}
 8004ac4:	469e      	mov	lr, r3
 8004ac6:	4770      	bx	lr
